MPLINK 4.40, Linker
Linker Map File - Created Fri Jul  5 23:43:55 2013

                                 Section Info
                  Section       Type    Address   Location Size(Bytes)
                ---------  ---------  ---------  ---------  ---------
               _entry_scn       code   0x000000    program   0x000006
                   .cinit    romdata   0x000006    program   0x000002
              high_vector       code   0x000008    program   0x000006
             .stringtable    romdata   0x00000e    program   0x000003
          .idata_user.o_i    romdata   0x000011    program   0x000000
          .romdata_user.o    romdata   0x000011    program   0x000000
       .idata_fct_ide.o_i    romdata   0x000011    program   0x000000
       .romdata_fct_ide.o    romdata   0x000011    program   0x000000
      .idata_fxd1616u.o_i    romdata   0x000011    program   0x000000
      .romdata_fxd1616u.o    romdata   0x000011    program   0x000000
        .idata___init.o_i    romdata   0x000011    program   0x000000
        .romdata___init.o    romdata   0x000011    program   0x000000
       .idata_sprintf.o_i    romdata   0x000011    program   0x000000
       .romdata_sprintf.o    romdata   0x000011    program   0x000000
      .idata_vfprintf.o_i    romdata   0x000011    program   0x000000
      .idata_fxd3232u.o_i    romdata   0x000011    program   0x000000
      .romdata_fxd3232u.o    romdata   0x000011    program   0x000000
       .idata_fxm3232.o_i    romdata   0x000011    program   0x000000
       .romdata_fxm3232.o    romdata   0x000011    program   0x000000
          .idata_putc.o_i    romdata   0x000011    program   0x000000
          .romdata_putc.o    romdata   0x000011    program   0x000000
    .idata__user_putc.o_i    romdata   0x000011    program   0x000000
    .romdata__user_putc.o    romdata   0x000011    program   0x000000
         .idata_c018i.o_i    romdata   0x000011    program   0x000000
           .romdata_spi.o    romdata   0x000011    program   0x000000
      .idata_pic_init.o_i    romdata   0x000011    program   0x000000
           .idata_spi.o_i    romdata   0x000011    program   0x000000
      .romdata_pic_init.o    romdata   0x000011    program   0x000000
.romdata_interface_register.o    romdata   0x000011    program   0x000000
          .romdata_main.o    romdata   0x000011    program   0x000000
.idata_interface_register.o_i    romdata   0x000011    program   0x000000
         .romdata_c018i.o    romdata   0x000011    program   0x000000
          .idata_main.o_i    romdata   0x000011    program   0x000000
            .code_c018i.o       code   0x000012    program   0x000000
       .code__user_putc.o       code   0x000012    program   0x000002
           .code___init.o       code   0x000014    program   0x000002
               low_vector       code   0x000018    program   0x000006
             .code_user.o       code   0x00001e    program   0x002bb2
          .code_fct_ide.o       code   0x002bd0    program   0x002778
             .code_main.o       code   0x005348    program   0x000f8e
         .code_vfprintf.o       code   0x0062d6    program   0x000c22
.code_interface_register.o       code   0x006ef8    program   0x0004b4
          .code_sprintf.o       code   0x0073ac    program   0x0000ac
                     PROG       code   0x007458    program   0x0000a6
               _cinit_scn       code   0x0074fe    program   0x00009e
         .code_pic_init.o       code   0x00759c    program   0x000092
             .code_putc.o       code   0x00762e    program   0x000084
          .code_fxm3232.o       code   0x0076b2    program   0x000070
                   STRING       code   0x007722    program   0x000066
              .code_spi.o       code   0x007788    program   0x000054
         .code_fxd3232u.o       code   0x0077dc    program   0x000048
             D10KTCYXCODE       code   0x007824    program   0x00002e
         .code_fxd1616u.o       code   0x007852    program   0x00002c
                    CTYPE       code   0x00787e    program   0x000024
                    .code       code   0x0078a2    program   0x000020
             _startup_scn       code   0x0078c2    program   0x00001c
                    STDIO       code   0x0078de    program   0x00001c
              D10TCYXCODE       code   0x0078fa    program   0x000016
      .romdata_vfprintf.o    romdata   0x007910    program   0x000011
    .config_300001_main.o    romdata   0x300001    program   0x000001
    .config_300003_main.o    romdata   0x300003    program   0x000001
    .config_300006_main.o    romdata   0x300006    program   0x000001
                MATH_DATA      udata   0x000000       data   0x000014
                 .tmpdata      udata   0x000014       data   0x000007
        int_flag_high_tmp      udata   0x00001b       data   0x000001
                DELAYDAT2      udata   0x00001c       data   0x000001
                DELAYDAT1      udata   0x00001d       data   0x000001
                     gpr5      udata   0x000060       data   0x000066
            .udata_main.o      udata   0x0000c6       data   0x000035
      .idata__user_putc.o      idata   0x0000fb       data   0x000000
      .udata__user_putc.o      udata   0x0000fb       data   0x000000
        .udata_fxd1616u.o      udata   0x0000fb       data   0x000000
        .idata_fxd1616u.o      idata   0x0000fb       data   0x000000
          .udata___init.o      udata   0x0000fb       data   0x000000
          .idata___init.o      idata   0x0000fb       data   0x000000
         .udata_sprintf.o      udata   0x0000fb       data   0x000000
         .idata_sprintf.o      idata   0x0000fb       data   0x000000
        .udata_vfprintf.o      udata   0x0000fb       data   0x000000
        .idata_vfprintf.o      idata   0x0000fb       data   0x000000
        .udata_fxd3232u.o      udata   0x0000fb       data   0x000000
        .idata_fxd3232u.o      idata   0x0000fb       data   0x000000
         .udata_fxm3232.o      udata   0x0000fb       data   0x000000
         .idata_fxm3232.o      idata   0x0000fb       data   0x000000
            .udata_putc.o      udata   0x0000fb       data   0x000000
            .idata_putc.o      idata   0x0000fb       data   0x000000
           .idata_c018i.o      idata   0x0000fb       data   0x000000
            .idata_main.o      idata   0x0000fb       data   0x000000
                     gpr1      udata   0x0000fb       data   0x000000
        .udata_pic_init.o      udata   0x0000fb       data   0x000000
        .idata_pic_init.o      idata   0x0000fb       data   0x000000
.udata_interface_register.o      udata   0x0000fb       data   0x000000
.idata_interface_register.o      idata   0x0000fb       data   0x000000
             .udata_spi.o      udata   0x0000fb       data   0x000000
             .idata_spi.o      idata   0x0000fb       data   0x000000
            .idata_user.o      idata   0x0000fb       data   0x000000
         .udata_fct_ide.o      udata   0x0000fb       data   0x000000
         .idata_fct_ide.o      idata   0x0000fb       data   0x000000
                     gpr3      udata   0x000100       data   0x0000e8
                     gpr2      udata   0x0001e8       data   0x00000c
           .udata_c018i.o      udata   0x0001f4       data   0x00000a
            .udata_user.o      udata   0x0001fe       data   0x000002
                     gpr7      udata   0x000700       data   0x000400
                   .stack      udata   0x000e00       data   0x000100
                     gpr4      udata   0x000f00       data   0x000040
            SFR_UNBANKED0      udata   0x000f62       data   0x00009e



                              Program Memory Usage 
                               Start         End      
                           ---------   ---------      
                            0x000000    0x000010      
                            0x000012    0x000015      
                            0x000018    0x007920      
                            0x300001    0x300001      
                            0x300003    0x300003      
                            0x300006    0x300006      
            31009 out of 132120 program addresses used, program memory utilization is 23%



                              Symbols - Sorted by Name
                     Name    Address   Location    Storage File                     
                ---------  ---------  ---------  --------- ---------                
            ConvertDigit2   0x002828    program     extern /home/blobby/ProgC/lecteur_cd/Code_IDE/user.c
            ConvertDigit4   0x0027aa    program     extern /home/blobby/ProgC/lecteur_cd/Code_IDE/user.c
                   D10K_1   0x007830    program     static C:\MCC18\v3_39\src\traditional\delays\d10ktcyx.asm
                    D10Kl   0x00783c    program     static C:\MCC18\v3_39\src\traditional\delays\d10ktcyx.asm
                    D10Kx   0x00782e    program     static C:\MCC18\v3_39\src\traditional\delays\d10ktcyx.asm
                    D10_1   0x00790a    program     static C:\MCC18\v3_39\src\traditional\delays\d10tcyx.asm
                     D10x   0x007902    program     static C:\MCC18\v3_39\src\traditional\delays\d10tcyx.asm
                   D1616S   0x00747a    program     static C:\MCC18\v3_39\src\traditional\math\fxd1616s.asm
                D1616SNEG   0x007488    program     static C:\MCC18\v3_39\src\traditional\math\fxd1616s.asm
                 D1616SOK   0x007484    program     static C:\MCC18\v3_39\src\traditional\math\fxd1616s.asm
                  D1616SX   0x00749a    program     static C:\MCC18\v3_39\src\traditional\math\fxd1616s.asm
                  DA1616S   0x00746a    program     static C:\MCC18\v3_39\src\traditional\math\fxd1616s.asm
             Delay10KTCYx   0x007824    program     extern C:\MCC18\v3_39\src\traditional\delays\d10ktcyx.asm
              Delay10TCYx   0x0078fa    program     extern C:\MCC18\v3_39\src\traditional\delays\d10tcyx.asm
                    Eject   0x002fe6    program     extern /home/blobby/ProgC/lecteur_cd/Code_IDE/fct_ide.c
                EjectLoad   0x000bb6    program     extern /home/blobby/ProgC/lecteur_cd/Code_IDE/user.c
                 FXD1616S   0x007458    program     extern C:\MCC18\v3_39\src\traditional\math\fxd1616s.asm
                 FXD1616U   0x007852    program     extern C:\MCC18\v3_39\src\traditional\math\fxd1616u.c
                 FXD3232U   0x0077dc    program     extern C:\MCC18\v3_39\src\traditional\math\fxd3232u.c
                 FXM1616S   0x0074a4    program     extern C:\MCC18\v3_39\src\traditional\math\fxm1616s.asm
                  FXM3232   0x0076b2    program     extern C:\MCC18\v3_39\src\traditional\math\fxm3232.c
                   F_Scan   0x0046c6    program     extern /home/blobby/ProgC/lecteur_cd/Code_IDE/fct_ide.c
              HandleSIRSC   0x000722    program     extern /home/blobby/ProgC/lecteur_cd/Code_IDE/user.c
                  INQUIRY   0x004f7a    program     extern /home/blobby/ProgC/lecteur_cd/Code_IDE/fct_ide.c
                 INT_Init   0x0075d8    program     extern /home/blobby/ProgC/lecteur_cd/Code_IDE/pic_init.c
                 InitDSPY   0x000460    program     extern /home/blobby/ProgC/lecteur_cd/Code_IDE/user.c
             InitMCP23S17   0x00001e    program     extern /home/blobby/ProgC/lecteur_cd/Code_IDE/user.c
              InitPCM1792   0x0003e6    program     extern /home/blobby/ProgC/lecteur_cd/Code_IDE/user.c
              InitSRC4392   0x000268    program     extern /home/blobby/ProgC/lecteur_cd/Code_IDE/user.c
                     Load   0x003178    program     extern /home/blobby/ProgC/lecteur_cd/Code_IDE/fct_ide.c
              LoadTOCInfo   0x001b9e    program     extern /home/blobby/ProgC/lecteur_cd/Code_IDE/user.c
                Mech_Stat   0x002bd0    program     extern /home/blobby/ProgC/lecteur_cd/Code_IDE/fct_ide.c
                     Mute   0x0024e4    program     extern /home/blobby/ProgC/lecteur_cd/Code_IDE/user.c
                NextTrack   0x001632    program     extern /home/blobby/ProgC/lecteur_cd/Code_IDE/user.c
                    Pause   0x004c5c    program     extern /home/blobby/ProgC/lecteur_cd/Code_IDE/fct_ide.c
                PlayPause   0x000f6c    program     extern /home/blobby/ProgC/lecteur_cd/Code_IDE/user.c
                 Play_MSF   0x00371c    program     extern /home/blobby/ProgC/lecteur_cd/Code_IDE/fct_ide.c
         Play_MSF_address   0x003a02    program     extern /home/blobby/ProgC/lecteur_cd/Code_IDE/fct_ide.c
                Port_Init   0x00759c    program     extern /home/blobby/ProgC/lecteur_cd/Code_IDE/pic_init.c
            PreviousTrack   0x001846    program     extern /home/blobby/ProgC/lecteur_cd/Code_IDE/user.c
                ProcessIO   0x0028a6    program     extern /home/blobby/ProgC/lecteur_cd/Code_IDE/user.c
            ProcessIrCode   0x00082a    program     extern /home/blobby/ProgC/lecteur_cd/Code_IDE/user.c
                   R_Scan   0x0048c8    program     extern /home/blobby/ProgC/lecteur_cd/Code_IDE/fct_ide.c
        Read_AbsMSF_SubCh   0x003cb6    program     extern /home/blobby/ProgC/lecteur_cd/Code_IDE/fct_ide.c
          Read_Alt_status   0x0070a4    program     extern /home/blobby/ProgC/lecteur_cd/Code_IDE/interface_register.c
            Read_Cyl_high   0x00711e    program     extern /home/blobby/ProgC/lecteur_cd/Code_IDE/interface_register.c
             Read_Cyl_low   0x007198    program     extern /home/blobby/ProgC/lecteur_cd/Code_IDE/interface_register.c
                Read_Data   0x007212    program     extern /home/blobby/ProgC/lecteur_cd/Code_IDE/interface_register.c
            Read_Dev_Head   0x0072f8    program     extern /home/blobby/ProgC/lecteur_cd/Code_IDE/interface_register.c
               Read_Error   0x006f2e    program     extern /home/blobby/ProgC/lecteur_cd/Code_IDE/interface_register.c
        Read_RelMSF_SubCh   0x0041d2    program     extern /home/blobby/ProgC/lecteur_cd/Code_IDE/fct_ide.c
          Read_Sect_Count   0x006f6e    program     extern /home/blobby/ProgC/lecteur_cd/Code_IDE/interface_register.c
         Read_Sect_Number   0x006fe8    program     extern /home/blobby/ProgC/lecteur_cd/Code_IDE/interface_register.c
              Read_Status   0x007064    program     extern /home/blobby/ProgC/lecteur_cd/Code_IDE/interface_register.c
                 Read_TOC   0x00333c    program     extern /home/blobby/ProgC/lecteur_cd/Code_IDE/fct_ide.c
               Reset_Hard   0x006ef8    program     extern /home/blobby/ProgC/lecteur_cd/Code_IDE/interface_register.c
                   Resume   0x004de8    program     extern /home/blobby/ProgC/lecteur_cd/Code_IDE/fct_ide.c
                 SetAuxIn   0x00258a    program     extern /home/blobby/ProgC/lecteur_cd/Code_IDE/user.c
               SoundLevel   0x002316    program     extern /home/blobby/ProgC/lecteur_cd/Code_IDE/user.c
                 Spi_Init   0x0075c4    program     extern /home/blobby/ProgC/lecteur_cd/Code_IDE/pic_init.c
                     Stop   0x004ad4    program     extern /home/blobby/ProgC/lecteur_cd/Code_IDE/fct_ide.c
               TSIGN1616A   0x0074f0    program     static C:\MCC18\v3_39\src\traditional\math\fxm1616s.asm
              Timer0_Init   0x0075ec    program     extern /home/blobby/ProgC/lecteur_cd/Code_IDE/pic_init.c
              Timer1_Init   0x007600    program     extern /home/blobby/ProgC/lecteur_cd/Code_IDE/pic_init.c
              Timer2_Init   0x007610    program     extern /home/blobby/ProgC/lecteur_cd/Code_IDE/pic_init.c
         UpdateCurrentMSF   0x001ef4    program     extern /home/blobby/ProgC/lecteur_cd/Code_IDE/user.c
               VolumeDown   0x0022d0    program     extern /home/blobby/ProgC/lecteur_cd/Code_IDE/user.c
                 VolumeUp   0x002280    program     extern /home/blobby/ProgC/lecteur_cd/Code_IDE/user.c
           Write_Cyl_high   0x00715e    program     extern /home/blobby/ProgC/lecteur_cd/Code_IDE/interface_register.c
            Write_Cyl_low   0x0071d8    program     extern /home/blobby/ProgC/lecteur_cd/Code_IDE/interface_register.c
               Write_Data   0x007268    program     extern /home/blobby/ProgC/lecteur_cd/Code_IDE/interface_register.c
            Write_Dev_Ctr   0x0072be    program     extern /home/blobby/ProgC/lecteur_cd/Code_IDE/interface_register.c
           Write_Dev_Head   0x007338    program     extern /home/blobby/ProgC/lecteur_cd/Code_IDE/interface_register.c
           Write_Features   0x007372    program     extern /home/blobby/ProgC/lecteur_cd/Code_IDE/interface_register.c
         Write_Sect_Count   0x006fae    program     extern /home/blobby/ProgC/lecteur_cd/Code_IDE/interface_register.c
        Write_Sect_Number   0x00702a    program     extern /home/blobby/ProgC/lecteur_cd/Code_IDE/interface_register.c
            Write_command   0x0070e4    program     extern /home/blobby/ProgC/lecteur_cd/Code_IDE/interface_register.c
                   _2jEnd   0x007772    program     static C:\MCC18\v3_39\src\traditional\stdclib\slenpgm.asm
       _D10KTCYXCODE_0010   0x007834    program     static C:\MCC18\v3_39\src\traditional\delays\d10ktcyx.asm
       _D10KTCYXCODE_001C   0x007840    program     static C:\MCC18\v3_39\src\traditional\delays\d10ktcyx.asm
        _D10TCYXCODE_000A   0x007904    program     static C:\MCC18\v3_39\src\traditional\delays\d10tcyx.asm
        _D10TCYXCODE_000C   0x007906    program     static C:\MCC18\v3_39\src\traditional\delays\d10tcyx.asm
        _D10TCYXCODE_000E   0x007908    program     static C:\MCC18\v3_39\src\traditional\delays\d10tcyx.asm
      ___case_90_lbl00091   0x005db8    program     static                          
      ___case_94_lbl00094   0x005de8    program     static                          
      ___case_98_lbl00095   0x005e1a    program     static                          
      ___case_99_lbl00099   0x005e94    program     static                          
      ___default_lbl00104   0x005f60    program     static                          
          ___for_lbl00041   0x0031d6    program     static                          
          ___for_lbl00042   0x0031e2    program     static                          
          ___for_lbl00043   0x0031a0    program     static                          
          ___for_lbl00053   0x00339a    program     static                          
          ___for_lbl00054   0x0033a6    program     static                          
          ___for_lbl00055   0x003364    program     static                          
           ___if_lbl00046   0x003252    program     static                          
           ___if_lbl00051   0x00332e    program     static                          
           ___if_lbl00058   0x00341a    program     static                          
           ___if_lbl00059   0x00343c    program     static                          
           ___if_lbl00067   0x003556    program     static                          
           ___if_lbl00070   0x0035cc    program     static                          
           ___if_lbl00071   0x003604    program     static                          
           ___if_lbl00074   0x00370e    program     static                          
           ___if_lbl00107   0x005f90    program     static                          
       ___return_lbl00000   0x007822    program     static                          
       ___return_lbl00000   0x000004    program     static                          
       ___return_lbl00000   0x007720    program     static                          
       ___return_lbl00000   0x00787c    program     static                          
       ___return_lbl00000   0x00000c    program     static                          
       ___return_lbl00001   0x00001c    program     static                          
       ___return_lbl00001   0x006f64    program     static                          
       ___return_lbl00001   0x0078dc    program     static                          
       ___return_lbl00002   0x00759a    program     static                          
       ___return_lbl00002   0x006fa4    program     static                          
       ___return_lbl00003   0x006fe0    program     static                          
       ___return_lbl00004   0x007020    program     static                          
       ___return_lbl00005   0x00705c    program     static                          
       ___return_lbl00006   0x00709a    program     static                          
       ___return_lbl00007   0x0070da    program     static                          
       ___return_lbl00008   0x007116    program     static                          
       ___return_lbl00009   0x007154    program     static                          
       ___return_lbl00010   0x007190    program     static                          
       ___return_lbl00011   0x0071ce    program     static                          
       ___return_lbl00012   0x00720a    program     static                          
       ___return_lbl00013   0x007260    program     static                          
       ___return_lbl00014   0x0072b6    program     static                          
       ___return_lbl00015   0x0072f0    program     static                          
       ___return_lbl00016   0x00732e    program     static                          
       ___return_lbl00017   0x00736a    program     static                          
       ___return_lbl00018   0x0073a4    program     static                          
       ___return_lbl00040   0x003334    program     static                          
       ___return_lbl00052   0x003714    program     static                          
   ___switchexit_lbl00020   0x005f60    program     static                          
        ___while_lbl00044   0x003212    program     static                          
        ___while_lbl00045   0x003254    program     static                          
        ___while_lbl00047   0x003274    program     static                          
        ___while_lbl00048   0x0032da    program     static                          
        ___while_lbl00049   0x0032ee    program     static                          
        ___while_lbl00050   0x003330    program     static                          
        ___while_lbl00056   0x0033ea    program     static                          
        ___while_lbl00057   0x00343e    program     static                          
        ___while_lbl00060   0x00345e    program     static                          
        ___while_lbl00061   0x0034c4    program     static                          
        ___while_lbl00062   0x0034d6    program     static                          
        ___while_lbl00063   0x003606    program     static                          
        ___while_lbl00065   0x003516    program     static                          
        ___while_lbl00066   0x003558    program     static                          
        ___while_lbl00068   0x003570    program     static                          
        ___while_lbl00069   0x0035cc    program     static                          
        ___while_lbl00072   0x00360e    program     static                          
        ___while_lbl00073   0x003710    program     static                          
               __config_0   0x300001    program     static /home/blobby/ProgC/lecteur_cd/Code_IDE/main.c
               __config_1   0x300003    program     static /home/blobby/ProgC/lecteur_cd/Code_IDE/main.c
               __config_2   0x300006    program     static /home/blobby/ProgC/lecteur_cd/Code_IDE/main.c
                   __init   0x000014    program     extern C:\MCC18\v3_39\src\traditional\stdclib\__init.c
                   __pa_0   0x006c16    program     static C:\MCC18\v3_39\src\traditional\stdclib\vfprintf.c
                   __pa_1   0x006c1e    program     static C:\MCC18\v3_39\src\traditional\stdclib\vfprintf.c
                  __pa_10   0x006cd2    program     static C:\MCC18\v3_39\src\traditional\stdclib\vfprintf.c
                  __pa_11   0x006ce0    program     static C:\MCC18\v3_39\src\traditional\stdclib\vfprintf.c
                  __pa_12   0x006cf6    program     static C:\MCC18\v3_39\src\traditional\stdclib\vfprintf.c
                  __pa_13   0x006d10    program     static C:\MCC18\v3_39\src\traditional\stdclib\vfprintf.c
                  __pa_14   0x006d28    program     static C:\MCC18\v3_39\src\traditional\stdclib\vfprintf.c
                  __pa_15   0x006d38    program     static C:\MCC18\v3_39\src\traditional\stdclib\vfprintf.c
                  __pa_16   0x006d4e    program     static C:\MCC18\v3_39\src\traditional\stdclib\vfprintf.c
                  __pa_17   0x006d60    program     static C:\MCC18\v3_39\src\traditional\stdclib\vfprintf.c
                  __pa_18   0x006d72    program     static C:\MCC18\v3_39\src\traditional\stdclib\vfprintf.c
                  __pa_19   0x006d7c    program     static C:\MCC18\v3_39\src\traditional\stdclib\vfprintf.c
                   __pa_2   0x006c28    program     static C:\MCC18\v3_39\src\traditional\stdclib\vfprintf.c
                  __pa_20   0x006d8c    program     static C:\MCC18\v3_39\src\traditional\stdclib\vfprintf.c
                  __pa_21   0x006d9c    program     static C:\MCC18\v3_39\src\traditional\stdclib\vfprintf.c
                  __pa_22   0x006dac    program     static C:\MCC18\v3_39\src\traditional\stdclib\vfprintf.c
                  __pa_23   0x006db8    program     static C:\MCC18\v3_39\src\traditional\stdclib\vfprintf.c
                  __pa_24   0x006dc6    program     static C:\MCC18\v3_39\src\traditional\stdclib\vfprintf.c
                  __pa_25   0x006dce    program     static C:\MCC18\v3_39\src\traditional\stdclib\vfprintf.c
                  __pa_26   0x006dd8    program     static C:\MCC18\v3_39\src\traditional\stdclib\vfprintf.c
                  __pa_27   0x006de2    program     static C:\MCC18\v3_39\src\traditional\stdclib\vfprintf.c
                  __pa_28   0x006dea    program     static C:\MCC18\v3_39\src\traditional\stdclib\vfprintf.c
                  __pa_29   0x006df8    program     static C:\MCC18\v3_39\src\traditional\stdclib\vfprintf.c
                   __pa_3   0x006c32    program     static C:\MCC18\v3_39\src\traditional\stdclib\vfprintf.c
                  __pa_30   0x006e14    program     static C:\MCC18\v3_39\src\traditional\stdclib\vfprintf.c
                  __pa_31   0x006e2e    program     static C:\MCC18\v3_39\src\traditional\stdclib\vfprintf.c
                  __pa_32   0x006e48    program     static C:\MCC18\v3_39\src\traditional\stdclib\vfprintf.c
                  __pa_33   0x006e60    program     static C:\MCC18\v3_39\src\traditional\stdclib\vfprintf.c
                  __pa_34   0x006e6a    program     static C:\MCC18\v3_39\src\traditional\stdclib\vfprintf.c
                  __pa_35   0x006e78    program     static C:\MCC18\v3_39\src\traditional\stdclib\vfprintf.c
                  __pa_36   0x006e80    program     static C:\MCC18\v3_39\src\traditional\stdclib\vfprintf.c
                  __pa_37   0x006e8a    program     static C:\MCC18\v3_39\src\traditional\stdclib\vfprintf.c
                  __pa_38   0x006e9a    program     static C:\MCC18\v3_39\src\traditional\stdclib\vfprintf.c
                  __pa_39   0x006ea8    program     static C:\MCC18\v3_39\src\traditional\stdclib\vfprintf.c
                   __pa_4   0x006c4a    program     static C:\MCC18\v3_39\src\traditional\stdclib\vfprintf.c
                  __pa_40   0x006eb4    program     static C:\MCC18\v3_39\src\traditional\stdclib\vfprintf.c
                  __pa_41   0x006ec0    program     static C:\MCC18\v3_39\src\traditional\stdclib\vfprintf.c
                  __pa_42   0x006ec8    program     static C:\MCC18\v3_39\src\traditional\stdclib\vfprintf.c
                  __pa_43   0x006ed2    program     static C:\MCC18\v3_39\src\traditional\stdclib\vfprintf.c
                  __pa_44   0x006ed8    program     static C:\MCC18\v3_39\src\traditional\stdclib\vfprintf.c
                  __pa_45   0x006ee2    program     static C:\MCC18\v3_39\src\traditional\stdclib\vfprintf.c
                  __pa_46   0x006eee    program     static C:\MCC18\v3_39\src\traditional\stdclib\vfprintf.c
                   __pa_5   0x006c5e    program     static C:\MCC18\v3_39\src\traditional\stdclib\vfprintf.c
                   __pa_6   0x006c7a    program     static C:\MCC18\v3_39\src\traditional\stdclib\vfprintf.c
                   __pa_7   0x006c84    program     static C:\MCC18\v3_39\src\traditional\stdclib\vfprintf.c
                   __pa_8   0x006c90    program     static C:\MCC18\v3_39\src\traditional\stdclib\vfprintf.c
                   __pa_9   0x006cb2    program     static C:\MCC18\v3_39\src\traditional\stdclib\vfprintf.c
               __string_0   0x00000e    program     static /home/blobby/ProgC/lecteur_cd/Code_IDE/user.c
              __tmplbl_10   0x00324c    program     static                          
              __tmplbl_11   0x003328    program     static                          
              __tmplbl_12   0x003436    program     static                          
              __tmplbl_13   0x0034fa    program     static                          
              __tmplbl_14   0x0034f2    program     static                          
              __tmplbl_15   0x003550    program     static                          
              __tmplbl_16   0x0035fe    program     static                          
              __tmplbl_42   0x006dac    program     static                          
              __tmplbl_43   0x006bf4    program     static                          
              __tmplbl_44   0x006bda    program     static                          
              __tmplbl_85   0x00632c    program     static                          
            __zero_memory   0x0078a2    program     extern C:\MCC18\v3_39\src\traditional\proc\p18F6722.asm
                _do_cinit   0x0074fe    program     extern C:\MCC18\v3_39\src\traditional\startup\c018i.c
                   _entry   0x000000    program     extern C:\MCC18\v3_39\src\traditional\startup\c018i.c
                   _false   0x00781e    program     static                          
                 _startup   0x0078c2    program     extern C:\MCC18\v3_39\src\traditional\startup\c018i.c
              _usart_putc   0x0078de    program     extern C:\MCC18\v3_39\src\pmc_common\USART\_usartpc.asm
               _user_putc   0x000012    program     extern C:\MCC18\v3_39\src\traditional\stdclib\_user_putc.c
                compare_l   0x0078b8    program     static C:\MCC18\v3_39\src\traditional\proc\p18F6722.asm
                copy_loop   0x007570    program     static                          
            copy_one_byte   0x007576    program     static                          
                     done   0x00759a    program     static                          
             done_copying   0x007584    program     static                          
                  endloop   0x007878    program     static                          
            int_flag_high   0x005348    program     extern /home/blobby/ProgC/lecteur_cd/Code_IDE/main.c
             int_flag_low   0x006176    program     extern /home/blobby/ProgC/lecteur_cd/Code_IDE/main.c
    interrupt_vector_high   0x000008    program     extern /home/blobby/ProgC/lecteur_cd/Code_IDE/main.c
     interrupt_vector_low   0x000018    program     extern /home/blobby/ProgC/lecteur_cd/Code_IDE/main.c
                  isdigit   0x00787e    program     extern C:\MCC18\v3_39\src\traditional\stdclib\isdigit.asm
                     jEnd   0x007774    program     static C:\MCC18\v3_39\src\traditional\stdclib\slenpgm.asm
                     jEnd   0x00773c    program     static C:\MCC18\v3_39\src\traditional\stdclib\strlen.asm
                    jLoop   0x007732    program     static C:\MCC18\v3_39\src\traditional\stdclib\strlen.asm
                    jLoop   0x00775c    program     static C:\MCC18\v3_39\src\traditional\stdclib\slenpgm.asm
                   jMatch   0x00789e    program     static C:\MCC18\v3_39\src\traditional\stdclib\isdigit.asm
                 jNoMatch   0x0078a0    program     static C:\MCC18\v3_39\src\traditional\stdclib\isdigit.asm
                     loop   0x0078ee    program     static C:\MCC18\v3_39\src\pmc_common\USART\_usartpc.asm
                     loop   0x0078d2    program     static                          
                     loop   0x00785c    program     static                          
                     loop   0x0077ea    program     static                          
                   loop_h   0x0078b0    program     static C:\MCC18\v3_39\src\traditional\proc\p18F6722.asm
                   loop_l   0x0078ba    program     static C:\MCC18\v3_39\src\traditional\proc\p18F6722.asm
                     main   0x0061ae    program     extern /home/blobby/ProgC/lecteur_cd/Code_IDE/main.c
                     putc   0x00762e    program     extern C:\MCC18\v3_39\src\traditional\stdclib\putc.c
                 s_digits   0x007910    program     static C:\MCC18\v3_39\src\traditional\stdclib\vfprintf.c
            s_put_n_chars   0x0062d6    program     static C:\MCC18\v3_39\src\traditional\stdclib\vfprintf.c
                   spi_in   0x0077ac    program     extern /home/blobby/ProgC/lecteur_cd/Code_IDE/spi.c
                  spi_out   0x007788    program     extern /home/blobby/ProgC/lecteur_cd/Code_IDE/spi.c
                  sprintf   0x0073ac    program     extern C:\MCC18\v3_39\src\traditional\stdclib\sprintf.c
                   strlen   0x007722    program     extern C:\MCC18\v3_39\src\traditional\stdclib\strlen.asm
                strlenpgm   0x00773e    program     extern C:\MCC18\v3_39\src\traditional\stdclib\slenpgm.asm
                     test   0x007518    program     static                          
                 vfprintf   0x006302    program     extern C:\MCC18\v3_39\src\traditional\stdclib\vfprintf.c
               zero_block   0x0078b0    program     static C:\MCC18\v3_39\src\traditional\proc\p18F6722.asm
                   ADCON0   0x000fc2       data     extern C:\MCC18\v3_39\src\traditional\proc\p18F6722.asm
               ADCON0bits   0x000fc2       data     extern C:\MCC18\v3_39\src\traditional\proc\p18F6722.asm
                   ADCON1   0x000fc1       data     extern C:\MCC18\v3_39\src\traditional\proc\p18F6722.asm
               ADCON1bits   0x000fc1       data     extern C:\MCC18\v3_39\src\traditional\proc\p18F6722.asm
                   ADCON2   0x000fc0       data     extern C:\MCC18\v3_39\src\traditional\proc\p18F6722.asm
               ADCON2bits   0x000fc0       data     extern C:\MCC18\v3_39\src\traditional\proc\p18F6722.asm
                    ADRES   0x000fc3       data     extern C:\MCC18\v3_39\src\traditional\proc\p18F6722.asm
                   ADRESH   0x000fc4       data     extern C:\MCC18\v3_39\src\traditional\proc\p18F6722.asm
                   ADRESL   0x000fc3       data     extern C:\MCC18\v3_39\src\traditional\proc\p18F6722.asm
                     AMSF   0x0000f3       data     extern /home/blobby/ProgC/lecteur_cd/Code_IDE/main.c
              AudioStatus   0x0000ae       data     extern /home/blobby/ProgC/lecteur_cd/Code_IDE/user.c
                  BAUDCON   0x000f7e       data     extern C:\MCC18\v3_39\src\traditional\proc\p18F6722.asm
                 BAUDCON1   0x000f7e       data     extern C:\MCC18\v3_39\src\traditional\proc\p18F6722.asm
             BAUDCON1bits   0x000f7e       data     extern C:\MCC18\v3_39\src\traditional\proc\p18F6722.asm
                 BAUDCON2   0x000f7c       data     extern C:\MCC18\v3_39\src\traditional\proc\p18F6722.asm
             BAUDCON2bits   0x000f7c       data     extern C:\MCC18\v3_39\src\traditional\proc\p18F6722.asm
              BAUDCONbits   0x000f7e       data     extern C:\MCC18\v3_39\src\traditional\proc\p18F6722.asm
                      BSR   0x000fe0       data     extern C:\MCC18\v3_39\src\traditional\proc\p18F6722.asm
                  CCP1CON   0x000fbd       data     extern C:\MCC18\v3_39\src\traditional\proc\p18F6722.asm
              CCP1CONbits   0x000fbd       data     extern C:\MCC18\v3_39\src\traditional\proc\p18F6722.asm
                  CCP2CON   0x000fba       data     extern C:\MCC18\v3_39\src\traditional\proc\p18F6722.asm
              CCP2CONbits   0x000fba       data     extern C:\MCC18\v3_39\src\traditional\proc\p18F6722.asm
                  CCP3CON   0x000fb7       data     extern C:\MCC18\v3_39\src\traditional\proc\p18F6722.asm
              CCP3CONbits   0x000fb7       data     extern C:\MCC18\v3_39\src\traditional\proc\p18F6722.asm
                  CCP4CON   0x000f73       data     extern C:\MCC18\v3_39\src\traditional\proc\p18F6722.asm
              CCP4CONbits   0x000f73       data     extern C:\MCC18\v3_39\src\traditional\proc\p18F6722.asm
                  CCP5CON   0x000f70       data     extern C:\MCC18\v3_39\src\traditional\proc\p18F6722.asm
              CCP5CONbits   0x000f70       data     extern C:\MCC18\v3_39\src\traditional\proc\p18F6722.asm
                    CCPR1   0x000fbe       data     extern C:\MCC18\v3_39\src\traditional\proc\p18F6722.asm
                   CCPR1H   0x000fbf       data     extern C:\MCC18\v3_39\src\traditional\proc\p18F6722.asm
                   CCPR1L   0x000fbe       data     extern C:\MCC18\v3_39\src\traditional\proc\p18F6722.asm
                    CCPR2   0x000fbb       data     extern C:\MCC18\v3_39\src\traditional\proc\p18F6722.asm
                   CCPR2H   0x000fbc       data     extern C:\MCC18\v3_39\src\traditional\proc\p18F6722.asm
                   CCPR2L   0x000fbb       data     extern C:\MCC18\v3_39\src\traditional\proc\p18F6722.asm
                    CCPR3   0x000fb8       data     extern C:\MCC18\v3_39\src\traditional\proc\p18F6722.asm
                   CCPR3H   0x000fb9       data     extern C:\MCC18\v3_39\src\traditional\proc\p18F6722.asm
                   CCPR3L   0x000fb8       data     extern C:\MCC18\v3_39\src\traditional\proc\p18F6722.asm
                    CCPR4   0x000f74       data     extern C:\MCC18\v3_39\src\traditional\proc\p18F6722.asm
                   CCPR4H   0x000f75       data     extern C:\MCC18\v3_39\src\traditional\proc\p18F6722.asm
                   CCPR4L   0x000f74       data     extern C:\MCC18\v3_39\src\traditional\proc\p18F6722.asm
                    CCPR5   0x000f71       data     extern C:\MCC18\v3_39\src\traditional\proc\p18F6722.asm
                   CCPR5H   0x000f72       data     extern C:\MCC18\v3_39\src\traditional\proc\p18F6722.asm
                   CCPR5L   0x000f71       data     extern C:\MCC18\v3_39\src\traditional\proc\p18F6722.asm
                 CDStatus   0x0000a5       data     extern /home/blobby/ProgC/lecteur_cd/Code_IDE/user.c
                    CMCON   0x000fb4       data     extern C:\MCC18\v3_39\src\traditional\proc\p18F6722.asm
                CMCONbits   0x000fb4       data     extern C:\MCC18\v3_39\src\traditional\proc\p18F6722.asm
                   CVRCON   0x000fb5       data     extern C:\MCC18\v3_39\src\traditional\proc\p18F6722.asm
               CVRCONbits   0x000fb5       data     extern C:\MCC18\v3_39\src\traditional\proc\p18F6722.asm
        CurrentAbsAddrMSF   0x0001f0       data     extern /home/blobby/ProgC/lecteur_cd/Code_IDE/user.c
        CurrentRelAddrMSF   0x0001ec       data     extern /home/blobby/ProgC/lecteur_cd/Code_IDE/user.c
                     DDRA   0x000f92       data     extern C:\MCC18\v3_39\src\traditional\proc\p18F6722.asm
                 DDRAbits   0x000f92       data     extern C:\MCC18\v3_39\src\traditional\proc\p18F6722.asm
                     DDRB   0x000f93       data     extern C:\MCC18\v3_39\src\traditional\proc\p18F6722.asm
                 DDRBbits   0x000f93       data     extern C:\MCC18\v3_39\src\traditional\proc\p18F6722.asm
                     DDRC   0x000f94       data     extern C:\MCC18\v3_39\src\traditional\proc\p18F6722.asm
                 DDRCbits   0x000f94       data     extern C:\MCC18\v3_39\src\traditional\proc\p18F6722.asm
                     DDRD   0x000f95       data     extern C:\MCC18\v3_39\src\traditional\proc\p18F6722.asm
                 DDRDbits   0x000f95       data     extern C:\MCC18\v3_39\src\traditional\proc\p18F6722.asm
                     DDRE   0x000f96       data     extern C:\MCC18\v3_39\src\traditional\proc\p18F6722.asm
                 DDREbits   0x000f96       data     extern C:\MCC18\v3_39\src\traditional\proc\p18F6722.asm
                     DDRF   0x000f97       data     extern C:\MCC18\v3_39\src\traditional\proc\p18F6722.asm
                 DDRFbits   0x000f97       data     extern C:\MCC18\v3_39\src\traditional\proc\p18F6722.asm
                     DDRG   0x000f98       data     extern C:\MCC18\v3_39\src\traditional\proc\p18F6722.asm
                 DDRGbits   0x000f98       data     extern C:\MCC18\v3_39\src\traditional\proc\p18F6722.asm
            DelayCounter1   0x00001d       data     extern C:\MCC18\v3_39\src\traditional\delays\delayd1.asm
            DelayCounter2   0x00001c       data     extern C:\MCC18\v3_39\src\traditional\delays\delayd2.asm
                  ECCP1AS   0x000fb6       data     extern C:\MCC18\v3_39\src\traditional\proc\p18F6722.asm
              ECCP1ASbits   0x000fb6       data     extern C:\MCC18\v3_39\src\traditional\proc\p18F6722.asm
                 ECCP1CON   0x000fbd       data     extern C:\MCC18\v3_39\src\traditional\proc\p18F6722.asm
             ECCP1CONbits   0x000fbd       data     extern C:\MCC18\v3_39\src\traditional\proc\p18F6722.asm
                 ECCP1DEL   0x000f79       data     extern C:\MCC18\v3_39\src\traditional\proc\p18F6722.asm
             ECCP1DELbits   0x000f79       data     extern C:\MCC18\v3_39\src\traditional\proc\p18F6722.asm
                  ECCP2AS   0x000f68       data     extern C:\MCC18\v3_39\src\traditional\proc\p18F6722.asm
              ECCP2ASbits   0x000f68       data     extern C:\MCC18\v3_39\src\traditional\proc\p18F6722.asm
                 ECCP2CON   0x000fba       data     extern C:\MCC18\v3_39\src\traditional\proc\p18F6722.asm
             ECCP2CONbits   0x000fba       data     extern C:\MCC18\v3_39\src\traditional\proc\p18F6722.asm
                 ECCP2DEL   0x000f67       data     extern C:\MCC18\v3_39\src\traditional\proc\p18F6722.asm
             ECCP2DELbits   0x000f67       data     extern C:\MCC18\v3_39\src\traditional\proc\p18F6722.asm
                  ECCP3AS   0x000f6a       data     extern C:\MCC18\v3_39\src\traditional\proc\p18F6722.asm
              ECCP3ASbits   0x000f6a       data     extern C:\MCC18\v3_39\src\traditional\proc\p18F6722.asm
                 ECCP3CON   0x000fb7       data     extern C:\MCC18\v3_39\src\traditional\proc\p18F6722.asm
             ECCP3CONbits   0x000fb7       data     extern C:\MCC18\v3_39\src\traditional\proc\p18F6722.asm
                 ECCP3DEL   0x000f69       data     extern C:\MCC18\v3_39\src\traditional\proc\p18F6722.asm
             ECCP3DELbits   0x000f69       data     extern C:\MCC18\v3_39\src\traditional\proc\p18F6722.asm
                    EEADR   0x000fa9       data     extern C:\MCC18\v3_39\src\traditional\proc\p18F6722.asm
                   EEADRH   0x000faa       data     extern C:\MCC18\v3_39\src\traditional\proc\p18F6722.asm
                   EECON1   0x000fa6       data     extern C:\MCC18\v3_39\src\traditional\proc\p18F6722.asm
               EECON1bits   0x000fa6       data     extern C:\MCC18\v3_39\src\traditional\proc\p18F6722.asm
                   EECON2   0x000fa7       data     extern C:\MCC18\v3_39\src\traditional\proc\p18F6722.asm
                   EEDATA   0x000fa8       data     extern C:\MCC18\v3_39\src\traditional\proc\p18F6722.asm
               EndAddrMSF   0x0001e8       data     extern /home/blobby/ProgC/lecteur_cd/Code_IDE/user.c
                     FSR0   0x000fe9       data     extern C:\MCC18\v3_39\src\traditional\proc\p18F6722.asm
                    FSR0H   0x000fea       data     extern C:\MCC18\v3_39\src\traditional\proc\p18F6722.asm
                    FSR0L   0x000fe9       data     extern C:\MCC18\v3_39\src\traditional\proc\p18F6722.asm
                     FSR1   0x000fe1       data     extern C:\MCC18\v3_39\src\traditional\proc\p18F6722.asm
                    FSR1H   0x000fe2       data     extern C:\MCC18\v3_39\src\traditional\proc\p18F6722.asm
                    FSR1L   0x000fe1       data     extern C:\MCC18\v3_39\src\traditional\proc\p18F6722.asm
                     FSR2   0x000fd9       data     extern C:\MCC18\v3_39\src\traditional\proc\p18F6722.asm
                    FSR2H   0x000fda       data     extern C:\MCC18\v3_39\src\traditional\proc\p18F6722.asm
                    FSR2L   0x000fd9       data     extern C:\MCC18\v3_39\src\traditional\proc\p18F6722.asm
                  HLVDCON   0x000fd2       data     extern C:\MCC18\v3_39\src\traditional\proc\p18F6722.asm
              HLVDCONbits   0x000fd2       data     extern C:\MCC18\v3_39\src\traditional\proc\p18F6722.asm
                    INDF0   0x000fef       data     extern C:\MCC18\v3_39\src\traditional\proc\p18F6722.asm
                    INDF1   0x000fe7       data     extern C:\MCC18\v3_39\src\traditional\proc\p18F6722.asm
                    INDF2   0x000fdf       data     extern C:\MCC18\v3_39\src\traditional\proc\p18F6722.asm
                   INTCON   0x000ff2       data     extern C:\MCC18\v3_39\src\traditional\proc\p18F6722.asm
                  INTCON2   0x000ff1       data     extern C:\MCC18\v3_39\src\traditional\proc\p18F6722.asm
              INTCON2bits   0x000ff1       data     extern C:\MCC18\v3_39\src\traditional\proc\p18F6722.asm
                  INTCON3   0x000ff0       data     extern C:\MCC18\v3_39\src\traditional\proc\p18F6722.asm
              INTCON3bits   0x000ff0       data     extern C:\MCC18\v3_39\src\traditional\proc\p18F6722.asm
               INTCONbits   0x000ff2       data     extern C:\MCC18\v3_39\src\traditional\proc\p18F6722.asm
                     IPR1   0x000f9f       data     extern C:\MCC18\v3_39\src\traditional\proc\p18F6722.asm
                 IPR1bits   0x000f9f       data     extern C:\MCC18\v3_39\src\traditional\proc\p18F6722.asm
                     IPR2   0x000fa2       data     extern C:\MCC18\v3_39\src\traditional\proc\p18F6722.asm
                 IPR2bits   0x000fa2       data     extern C:\MCC18\v3_39\src\traditional\proc\p18F6722.asm
                     IPR3   0x000fa5       data     extern C:\MCC18\v3_39\src\traditional\proc\p18F6722.asm
                 IPR3bits   0x000fa5       data     extern C:\MCC18\v3_39\src\traditional\proc\p18F6722.asm
                     LATA   0x000f89       data     extern C:\MCC18\v3_39\src\traditional\proc\p18F6722.asm
                 LATAbits   0x000f89       data     extern C:\MCC18\v3_39\src\traditional\proc\p18F6722.asm
                     LATB   0x000f8a       data     extern C:\MCC18\v3_39\src\traditional\proc\p18F6722.asm
                 LATBbits   0x000f8a       data     extern C:\MCC18\v3_39\src\traditional\proc\p18F6722.asm
                     LATC   0x000f8b       data     extern C:\MCC18\v3_39\src\traditional\proc\p18F6722.asm
                 LATCbits   0x000f8b       data     extern C:\MCC18\v3_39\src\traditional\proc\p18F6722.asm
                     LATD   0x000f8c       data     extern C:\MCC18\v3_39\src\traditional\proc\p18F6722.asm
                 LATDbits   0x000f8c       data     extern C:\MCC18\v3_39\src\traditional\proc\p18F6722.asm
                     LATE   0x000f8d       data     extern C:\MCC18\v3_39\src\traditional\proc\p18F6722.asm
                 LATEbits   0x000f8d       data     extern C:\MCC18\v3_39\src\traditional\proc\p18F6722.asm
                     LATF   0x000f8e       data     extern C:\MCC18\v3_39\src\traditional\proc\p18F6722.asm
                 LATFbits   0x000f8e       data     extern C:\MCC18\v3_39\src\traditional\proc\p18F6722.asm
                     LATG   0x000f8f       data     extern C:\MCC18\v3_39\src\traditional\proc\p18F6722.asm
                 LATGbits   0x000f8f       data     extern C:\MCC18\v3_39\src\traditional\proc\p18F6722.asm
                   LVDCON   0x000fd2       data     extern C:\MCC18\v3_39\src\traditional\proc\p18F6722.asm
               LVDCONbits   0x000fd2       data     extern C:\MCC18\v3_39\src\traditional\proc\p18F6722.asm
                  LeftVol   0x0000ad       data     extern /home/blobby/ProgC/lecteur_cd/Code_IDE/user.c
                MuteState   0x0000ab       data     extern /home/blobby/ProgC/lecteur_cd/Code_IDE/user.c
              NumbOfTrack   0x0000a9       data     extern /home/blobby/ProgC/lecteur_cd/Code_IDE/user.c
                   OSCCON   0x000fd3       data     extern C:\MCC18\v3_39\src\traditional\proc\p18F6722.asm
               OSCCONbits   0x000fd3       data     extern C:\MCC18\v3_39\src\traditional\proc\p18F6722.asm
                  OSCTUNE   0x000f9b       data     extern C:\MCC18\v3_39\src\traditional\proc\p18F6722.asm
              OSCTUNEbits   0x000f9b       data     extern C:\MCC18\v3_39\src\traditional\proc\p18F6722.asm
                       PC   0x000ff9       data     extern C:\MCC18\v3_39\src\traditional\proc\p18F6722.asm
                      PCL   0x000ff9       data     extern C:\MCC18\v3_39\src\traditional\proc\p18F6722.asm
                   PCLATH   0x000ffa       data     extern C:\MCC18\v3_39\src\traditional\proc\p18F6722.asm
                   PCLATU   0x000ffb       data     extern C:\MCC18\v3_39\src\traditional\proc\p18F6722.asm
                     PIE1   0x000f9d       data     extern C:\MCC18\v3_39\src\traditional\proc\p18F6722.asm
                 PIE1bits   0x000f9d       data     extern C:\MCC18\v3_39\src\traditional\proc\p18F6722.asm
                     PIE2   0x000fa0       data     extern C:\MCC18\v3_39\src\traditional\proc\p18F6722.asm
                 PIE2bits   0x000fa0       data     extern C:\MCC18\v3_39\src\traditional\proc\p18F6722.asm
                     PIE3   0x000fa3       data     extern C:\MCC18\v3_39\src\traditional\proc\p18F6722.asm
                 PIE3bits   0x000fa3       data     extern C:\MCC18\v3_39\src\traditional\proc\p18F6722.asm
                     PIR1   0x000f9e       data     extern C:\MCC18\v3_39\src\traditional\proc\p18F6722.asm
                 PIR1bits   0x000f9e       data     extern C:\MCC18\v3_39\src\traditional\proc\p18F6722.asm
                     PIR2   0x000fa1       data     extern C:\MCC18\v3_39\src\traditional\proc\p18F6722.asm
                 PIR2bits   0x000fa1       data     extern C:\MCC18\v3_39\src\traditional\proc\p18F6722.asm
                     PIR3   0x000fa4       data     extern C:\MCC18\v3_39\src\traditional\proc\p18F6722.asm
                 PIR3bits   0x000fa4       data     extern C:\MCC18\v3_39\src\traditional\proc\p18F6722.asm
                   PLUSW0   0x000feb       data     extern C:\MCC18\v3_39\src\traditional\proc\p18F6722.asm
                   PLUSW1   0x000fe3       data     extern C:\MCC18\v3_39\src\traditional\proc\p18F6722.asm
                   PLUSW2   0x000fdb       data     extern C:\MCC18\v3_39\src\traditional\proc\p18F6722.asm
                    PORTA   0x000f80       data     extern C:\MCC18\v3_39\src\traditional\proc\p18F6722.asm
                PORTAbits   0x000f80       data     extern C:\MCC18\v3_39\src\traditional\proc\p18F6722.asm
                    PORTB   0x000f81       data     extern C:\MCC18\v3_39\src\traditional\proc\p18F6722.asm
                PORTBbits   0x000f81       data     extern C:\MCC18\v3_39\src\traditional\proc\p18F6722.asm
                    PORTC   0x000f82       data     extern C:\MCC18\v3_39\src\traditional\proc\p18F6722.asm
                PORTCbits   0x000f82       data     extern C:\MCC18\v3_39\src\traditional\proc\p18F6722.asm
                    PORTD   0x000f83       data     extern C:\MCC18\v3_39\src\traditional\proc\p18F6722.asm
                PORTDbits   0x000f83       data     extern C:\MCC18\v3_39\src\traditional\proc\p18F6722.asm
                    PORTE   0x000f84       data     extern C:\MCC18\v3_39\src\traditional\proc\p18F6722.asm
                PORTEbits   0x000f84       data     extern C:\MCC18\v3_39\src\traditional\proc\p18F6722.asm
                    PORTF   0x000f85       data     extern C:\MCC18\v3_39\src\traditional\proc\p18F6722.asm
                PORTFbits   0x000f85       data     extern C:\MCC18\v3_39\src\traditional\proc\p18F6722.asm
                    PORTG   0x000f86       data     extern C:\MCC18\v3_39\src\traditional\proc\p18F6722.asm
                PORTGbits   0x000f86       data     extern C:\MCC18\v3_39\src\traditional\proc\p18F6722.asm
                 POSTDEC0   0x000fed       data     extern C:\MCC18\v3_39\src\traditional\proc\p18F6722.asm
                 POSTDEC1   0x000fe5       data     extern C:\MCC18\v3_39\src\traditional\proc\p18F6722.asm
                 POSTDEC2   0x000fdd       data     extern C:\MCC18\v3_39\src\traditional\proc\p18F6722.asm
                 POSTINC0   0x000fee       data     extern C:\MCC18\v3_39\src\traditional\proc\p18F6722.asm
                 POSTINC1   0x000fe6       data     extern C:\MCC18\v3_39\src\traditional\proc\p18F6722.asm
                 POSTINC2   0x000fde       data     extern C:\MCC18\v3_39\src\traditional\proc\p18F6722.asm
                      PR2   0x000fcb       data     extern C:\MCC18\v3_39\src\traditional\proc\p18F6722.asm
                      PR4   0x000f77       data     extern C:\MCC18\v3_39\src\traditional\proc\p18F6722.asm
                  PREINC0   0x000fec       data     extern C:\MCC18\v3_39\src\traditional\proc\p18F6722.asm
                  PREINC1   0x000fe4       data     extern C:\MCC18\v3_39\src\traditional\proc\p18F6722.asm
                  PREINC2   0x000fdc       data     extern C:\MCC18\v3_39\src\traditional\proc\p18F6722.asm
                     PROD   0x000ff3       data     extern C:\MCC18\v3_39\src\traditional\proc\p18F6722.asm
                    PRODH   0x000ff4       data     extern C:\MCC18\v3_39\src\traditional\proc\p18F6722.asm
                    PRODL   0x000ff3       data     extern C:\MCC18\v3_39\src\traditional\proc\p18F6722.asm
                   PSPCON   0x000fb0       data     extern C:\MCC18\v3_39\src\traditional\proc\p18F6722.asm
               PSPCONbits   0x000fb0       data     extern C:\MCC18\v3_39\src\traditional\proc\p18F6722.asm
                     RCON   0x000fd0       data     extern C:\MCC18\v3_39\src\traditional\proc\p18F6722.asm
                 RCONbits   0x000fd0       data     extern C:\MCC18\v3_39\src\traditional\proc\p18F6722.asm
                    RCREG   0x000fae       data     extern C:\MCC18\v3_39\src\traditional\proc\p18F6722.asm
                   RCREG1   0x000fae       data     extern C:\MCC18\v3_39\src\traditional\proc\p18F6722.asm
                   RCREG2   0x000f6e       data     extern C:\MCC18\v3_39\src\traditional\proc\p18F6722.asm
                    RCSTA   0x000fab       data     extern C:\MCC18\v3_39\src\traditional\proc\p18F6722.asm
                   RCSTA1   0x000fab       data     extern C:\MCC18\v3_39\src\traditional\proc\p18F6722.asm
               RCSTA1bits   0x000fab       data     extern C:\MCC18\v3_39\src\traditional\proc\p18F6722.asm
                   RCSTA2   0x000f6b       data     extern C:\MCC18\v3_39\src\traditional\proc\p18F6722.asm
               RCSTA2bits   0x000f6b       data     extern C:\MCC18\v3_39\src\traditional\proc\p18F6722.asm
                RCSTAbits   0x000fab       data     extern C:\MCC18\v3_39\src\traditional\proc\p18F6722.asm
                     RMSF   0x0000f7       data     extern /home/blobby/ProgC/lecteur_cd/Code_IDE/main.c
                 RightVol   0x0000ac       data     extern /home/blobby/ProgC/lecteur_cd/Code_IDE/user.c
                     SIGN   0x000000       data     extern C:\MCC18\v3_39\src\traditional\math\cmath18.asm
                    SPBRG   0x000faf       data     extern C:\MCC18\v3_39\src\traditional\proc\p18F6722.asm
                   SPBRG1   0x000faf       data     extern C:\MCC18\v3_39\src\traditional\proc\p18F6722.asm
                   SPBRG2   0x000f6f       data     extern C:\MCC18\v3_39\src\traditional\proc\p18F6722.asm
                   SPBRGH   0x000f7f       data     extern C:\MCC18\v3_39\src\traditional\proc\p18F6722.asm
                  SPBRGH1   0x000f7f       data     extern C:\MCC18\v3_39\src\traditional\proc\p18F6722.asm
                  SPBRGH2   0x000f7d       data     extern C:\MCC18\v3_39\src\traditional\proc\p18F6722.asm
                  SSP1ADD   0x000fc8       data     extern C:\MCC18\v3_39\src\traditional\proc\p18F6722.asm
                  SSP1BUF   0x000fc9       data     extern C:\MCC18\v3_39\src\traditional\proc\p18F6722.asm
                 SSP1CON1   0x000fc6       data     extern C:\MCC18\v3_39\src\traditional\proc\p18F6722.asm
             SSP1CON1bits   0x000fc6       data     extern C:\MCC18\v3_39\src\traditional\proc\p18F6722.asm
                 SSP1CON2   0x000fc5       data     extern C:\MCC18\v3_39\src\traditional\proc\p18F6722.asm
             SSP1CON2bits   0x000fc5       data     extern C:\MCC18\v3_39\src\traditional\proc\p18F6722.asm
                 SSP1STAT   0x000fc7       data     extern C:\MCC18\v3_39\src\traditional\proc\p18F6722.asm
             SSP1STATbits   0x000fc7       data     extern C:\MCC18\v3_39\src\traditional\proc\p18F6722.asm
                  SSP2ADD   0x000f65       data     extern C:\MCC18\v3_39\src\traditional\proc\p18F6722.asm
                  SSP2BUF   0x000f66       data     extern C:\MCC18\v3_39\src\traditional\proc\p18F6722.asm
                 SSP2CON1   0x000f63       data     extern C:\MCC18\v3_39\src\traditional\proc\p18F6722.asm
             SSP2CON1bits   0x000f63       data     extern C:\MCC18\v3_39\src\traditional\proc\p18F6722.asm
                 SSP2CON2   0x000f62       data     extern C:\MCC18\v3_39\src\traditional\proc\p18F6722.asm
             SSP2CON2bits   0x000f62       data     extern C:\MCC18\v3_39\src\traditional\proc\p18F6722.asm
                 SSP2STAT   0x000f64       data     extern C:\MCC18\v3_39\src\traditional\proc\p18F6722.asm
             SSP2STATbits   0x000f64       data     extern C:\MCC18\v3_39\src\traditional\proc\p18F6722.asm
                   SSPADD   0x000fc8       data     extern C:\MCC18\v3_39\src\traditional\proc\p18F6722.asm
                   SSPBUF   0x000fc9       data     extern C:\MCC18\v3_39\src\traditional\proc\p18F6722.asm
                  SSPCON1   0x000fc6       data     extern C:\MCC18\v3_39\src\traditional\proc\p18F6722.asm
              SSPCON1bits   0x000fc6       data     extern C:\MCC18\v3_39\src\traditional\proc\p18F6722.asm
                  SSPCON2   0x000fc5       data     extern C:\MCC18\v3_39\src\traditional\proc\p18F6722.asm
              SSPCON2bits   0x000fc5       data     extern C:\MCC18\v3_39\src\traditional\proc\p18F6722.asm
                  SSPSTAT   0x000fc7       data     extern C:\MCC18\v3_39\src\traditional\proc\p18F6722.asm
              SSPSTATbits   0x000fc7       data     extern C:\MCC18\v3_39\src\traditional\proc\p18F6722.asm
                   STATUS   0x000fd8       data     extern C:\MCC18\v3_39\src\traditional\proc\p18F6722.asm
               STATUSbits   0x000fd8       data     extern C:\MCC18\v3_39\src\traditional\proc\p18F6722.asm
                   STKPTR   0x000ffc       data     extern C:\MCC18\v3_39\src\traditional\proc\p18F6722.asm
               STKPTRbits   0x000ffc       data     extern C:\MCC18\v3_39\src\traditional\proc\p18F6722.asm
                    T0CON   0x000fd5       data     extern C:\MCC18\v3_39\src\traditional\proc\p18F6722.asm
                T0CONbits   0x000fd5       data     extern C:\MCC18\v3_39\src\traditional\proc\p18F6722.asm
                    T1CON   0x000fcd       data     extern C:\MCC18\v3_39\src\traditional\proc\p18F6722.asm
                T1CONbits   0x000fcd       data     extern C:\MCC18\v3_39\src\traditional\proc\p18F6722.asm
                    T2CON   0x000fca       data     extern C:\MCC18\v3_39\src\traditional\proc\p18F6722.asm
                T2CONbits   0x000fca       data     extern C:\MCC18\v3_39\src\traditional\proc\p18F6722.asm
                    T3CON   0x000fb1       data     extern C:\MCC18\v3_39\src\traditional\proc\p18F6722.asm
                T3CONbits   0x000fb1       data     extern C:\MCC18\v3_39\src\traditional\proc\p18F6722.asm
                    T4CON   0x000f76       data     extern C:\MCC18\v3_39\src\traditional\proc\p18F6722.asm
                T4CONbits   0x000f76       data     extern C:\MCC18\v3_39\src\traditional\proc\p18F6722.asm
                   TABLAT   0x000ff5       data     extern C:\MCC18\v3_39\src\traditional\proc\p18F6722.asm
                   TBLPTR   0x000ff6       data     extern C:\MCC18\v3_39\src\traditional\proc\p18F6722.asm
                  TBLPTRH   0x000ff7       data     extern C:\MCC18\v3_39\src\traditional\proc\p18F6722.asm
                  TBLPTRL   0x000ff6       data     extern C:\MCC18\v3_39\src\traditional\proc\p18F6722.asm
                  TBLPTRU   0x000ff8       data     extern C:\MCC18\v3_39\src\traditional\proc\p18F6722.asm
                    TMR0H   0x000fd7       data     extern C:\MCC18\v3_39\src\traditional\proc\p18F6722.asm
                    TMR0L   0x000fd6       data     extern C:\MCC18\v3_39\src\traditional\proc\p18F6722.asm
                    TMR1H   0x000fcf       data     extern C:\MCC18\v3_39\src\traditional\proc\p18F6722.asm
                    TMR1L   0x000fce       data     extern C:\MCC18\v3_39\src\traditional\proc\p18F6722.asm
                     TMR2   0x000fcc       data     extern C:\MCC18\v3_39\src\traditional\proc\p18F6722.asm
                    TMR3H   0x000fb3       data     extern C:\MCC18\v3_39\src\traditional\proc\p18F6722.asm
                    TMR3L   0x000fb2       data     extern C:\MCC18\v3_39\src\traditional\proc\p18F6722.asm
                     TMR4   0x000f78       data     extern C:\MCC18\v3_39\src\traditional\proc\p18F6722.asm
                      TOC   0x000700       data     extern /home/blobby/ProgC/lecteur_cd/Code_IDE/user.c
                      TOS   0x000ffd       data     extern C:\MCC18\v3_39\src\traditional\proc\p18F6722.asm
                     TOSH   0x000ffe       data     extern C:\MCC18\v3_39\src\traditional\proc\p18F6722.asm
                     TOSL   0x000ffd       data     extern C:\MCC18\v3_39\src\traditional\proc\p18F6722.asm
                     TOSU   0x000fff       data     extern C:\MCC18\v3_39\src\traditional\proc\p18F6722.asm
                    TRISA   0x000f92       data     extern C:\MCC18\v3_39\src\traditional\proc\p18F6722.asm
                TRISAbits   0x000f92       data     extern C:\MCC18\v3_39\src\traditional\proc\p18F6722.asm
                    TRISB   0x000f93       data     extern C:\MCC18\v3_39\src\traditional\proc\p18F6722.asm
                TRISBbits   0x000f93       data     extern C:\MCC18\v3_39\src\traditional\proc\p18F6722.asm
                    TRISC   0x000f94       data     extern C:\MCC18\v3_39\src\traditional\proc\p18F6722.asm
                TRISCbits   0x000f94       data     extern C:\MCC18\v3_39\src\traditional\proc\p18F6722.asm
                    TRISD   0x000f95       data     extern C:\MCC18\v3_39\src\traditional\proc\p18F6722.asm
                TRISDbits   0x000f95       data     extern C:\MCC18\v3_39\src\traditional\proc\p18F6722.asm
                    TRISE   0x000f96       data     extern C:\MCC18\v3_39\src\traditional\proc\p18F6722.asm
                TRISEbits   0x000f96       data     extern C:\MCC18\v3_39\src\traditional\proc\p18F6722.asm
                    TRISF   0x000f97       data     extern C:\MCC18\v3_39\src\traditional\proc\p18F6722.asm
                TRISFbits   0x000f97       data     extern C:\MCC18\v3_39\src\traditional\proc\p18F6722.asm
                    TRISG   0x000f98       data     extern C:\MCC18\v3_39\src\traditional\proc\p18F6722.asm
                TRISGbits   0x000f98       data     extern C:\MCC18\v3_39\src\traditional\proc\p18F6722.asm
                    TXREG   0x000fad       data     extern C:\MCC18\v3_39\src\traditional\proc\p18F6722.asm
                   TXREG1   0x000fad       data     extern C:\MCC18\v3_39\src\traditional\proc\p18F6722.asm
                   TXREG2   0x000f6d       data     extern C:\MCC18\v3_39\src\traditional\proc\p18F6722.asm
                    TXSTA   0x000fac       data     extern C:\MCC18\v3_39\src\traditional\proc\p18F6722.asm
                   TXSTA1   0x000fac       data     extern C:\MCC18\v3_39\src\traditional\proc\p18F6722.asm
               TXSTA1bits   0x000fac       data     extern C:\MCC18\v3_39\src\traditional\proc\p18F6722.asm
                   TXSTA2   0x000f6c       data     extern C:\MCC18\v3_39\src\traditional\proc\p18F6722.asm
               TXSTA2bits   0x000f6c       data     extern C:\MCC18\v3_39\src\traditional\proc\p18F6722.asm
                TXSTAbits   0x000fac       data     extern C:\MCC18\v3_39\src\traditional\proc\p18F6722.asm
                TimeoutEN   0x0000af       data     extern /home/blobby/ProgC/lecteur_cd/Code_IDE/user.c
              TrackToPlay   0x0000a7       data     extern /home/blobby/ProgC/lecteur_cd/Code_IDE/user.c
                   WDTCON   0x000fd1       data     extern C:\MCC18\v3_39\src\traditional\proc\p18F6722.asm
               WDTCONbits   0x000fd1       data     extern C:\MCC18\v3_39\src\traditional\proc\p18F6722.asm
                     WREG   0x000fe8       data     extern C:\MCC18\v3_39\src\traditional\proc\p18F6722.asm
                 __AARGB0   0x000009       data     extern C:\MCC18\v3_39\src\traditional\math\aarg.asm
                 __AARGB1   0x000008       data     extern C:\MCC18\v3_39\src\traditional\math\aarg.asm
                 __AARGB2   0x000007       data     extern C:\MCC18\v3_39\src\traditional\math\aarg.asm
                 __AARGB3   0x000006       data     extern C:\MCC18\v3_39\src\traditional\math\aarg.asm
                 __AARGB4   0x000005       data     extern C:\MCC18\v3_39\src\traditional\math\aarg.asm
                 __AARGB5   0x000004       data     extern C:\MCC18\v3_39\src\traditional\math\aarg.asm
                 __AARGB6   0x000003       data     extern C:\MCC18\v3_39\src\traditional\math\aarg.asm
                 __AARGB7   0x000002       data     extern C:\MCC18\v3_39\src\traditional\math\aarg.asm
                   __AEXP   0x00000a       data     extern C:\MCC18\v3_39\src\traditional\math\aarg.asm
                 __BARGB0   0x00000e       data     extern C:\MCC18\v3_39\src\traditional\math\barg.asm
                 __BARGB1   0x00000d       data     extern C:\MCC18\v3_39\src\traditional\math\barg.asm
                 __BARGB2   0x00000c       data     extern C:\MCC18\v3_39\src\traditional\math\barg.asm
                 __BARGB3   0x00000b       data     extern C:\MCC18\v3_39\src\traditional\math\barg.asm
                   __BEXP   0x00000f       data     extern C:\MCC18\v3_39\src\traditional\math\barg.asm
                __FPFLAGS   0x000001       data     extern C:\MCC18\v3_39\src\traditional\math\cmath18.asm
            __FPFLAGSbits   0x000001       data     extern C:\MCC18\v3_39\src\traditional\math\cmath18.asm
                  __REMB0   0x000005       data     extern C:\MCC18\v3_39\src\traditional\math\aarg.asm
                  __REMB1   0x000004       data     extern C:\MCC18\v3_39\src\traditional\math\aarg.asm
                  __REMB2   0x000003       data     extern C:\MCC18\v3_39\src\traditional\math\aarg.asm
                  __REMB3   0x000002       data     extern C:\MCC18\v3_39\src\traditional\math\aarg.asm
                   __TEMP   0x000013       data     extern C:\MCC18\v3_39\src\traditional\math\temparg.asm
                 __TEMPB0   0x000013       data     extern C:\MCC18\v3_39\src\traditional\math\temparg.asm
                 __TEMPB1   0x000012       data     extern C:\MCC18\v3_39\src\traditional\math\temparg.asm
                 __TEMPB2   0x000011       data     extern C:\MCC18\v3_39\src\traditional\math\temparg.asm
                 __TEMPB3   0x000010       data     extern C:\MCC18\v3_39\src\traditional\math\temparg.asm
                  __tmp_0   0x000014       data     static C:\MCC18\v3_39\src\traditional\stdclib\vfprintf.c
                  __tmp_0   0x000014       data     static C:\MCC18\v3_39\src\traditional\stdclib\sprintf.c
                  __tmp_0   0x000014       data     static C:\MCC18\v3_39\src\traditional\stdclib\putc.c
                  __tmp_0   0x000014       data     static /home/blobby/ProgC/lecteur_cd/Code_IDE/main.c
                  __tmp_0   0x000014       data     static /home/blobby/ProgC/lecteur_cd/Code_IDE/fct_ide.c
                  __tmp_0   0x000014       data     static /home/blobby/ProgC/lecteur_cd/Code_IDE/user.c
                  __tmp_1   0x00001b       data     static /home/blobby/ProgC/lecteur_cd/Code_IDE/main.c
                   buffer   0x0000b0       data     extern /home/blobby/ProgC/lecteur_cd/Code_IDE/user.c
                 count_IR   0x0000dd       data     extern /home/blobby/ProgC/lecteur_cd/Code_IDE/main.c
             count_IR_BIT   0x0000e1       data     extern /home/blobby/ProgC/lecteur_cd/Code_IDE/main.c
               count_info   0x0000ef       data     extern /home/blobby/ProgC/lecteur_cd/Code_IDE/main.c
                count_spi   0x0000ed       data     extern /home/blobby/ProgC/lecteur_cd/Code_IDE/main.c
                curr_byte   0x0001f7       data     static C:\MCC18\v3_39\src\traditional\startup\c018i.c
               curr_entry   0x0001f9       data     static C:\MCC18\v3_39\src\traditional\startup\c018i.c
           dataBUFFER_ide   0x000f00       data     extern /home/blobby/ProgC/lecteur_cd/Code_IDE/user.c
                dataBlank   0x000178       data     extern /home/blobby/ProgC/lecteur_cd/Code_IDE/user.c
                  dataDAC   0x000100       data     extern /home/blobby/ProgC/lecteur_cd/Code_IDE/user.c
                dataDSPY1   0x000128       data     extern /home/blobby/ProgC/lecteur_cd/Code_IDE/user.c
           dataDSPY1_info   0x000198       data     extern /home/blobby/ProgC/lecteur_cd/Code_IDE/user.c
                dataDSPY2   0x000138       data     extern /home/blobby/ProgC/lecteur_cd/Code_IDE/user.c
           dataDSPY2_info   0x0001a8       data     extern /home/blobby/ProgC/lecteur_cd/Code_IDE/user.c
                dataDSPY3   0x000148       data     extern /home/blobby/ProgC/lecteur_cd/Code_IDE/user.c
           dataDSPY3_info   0x0001b8       data     extern /home/blobby/ProgC/lecteur_cd/Code_IDE/user.c
                dataDSPY4   0x000158       data     extern /home/blobby/ProgC/lecteur_cd/Code_IDE/user.c
           dataDSPY4_info   0x0001c8       data     extern /home/blobby/ProgC/lecteur_cd/Code_IDE/user.c
                dataDSPY5   0x000168       data     extern /home/blobby/ProgC/lecteur_cd/Code_IDE/user.c
           dataDSPY5_info   0x0001d8       data     extern /home/blobby/ProgC/lecteur_cd/Code_IDE/user.c
                 dataREAD   0x000188       data     extern /home/blobby/ProgC/lecteur_cd/Code_IDE/user.c
                  dataSRC   0x000114       data     extern /home/blobby/ProgC/lecteur_cd/Code_IDE/user.c
                 data_ptr   0x0001fb       data     static C:\MCC18\v3_39\src\traditional\startup\c018i.c
                     flag   0x0001fe       data     extern /home/blobby/ProgC/lecteur_cd/Code_IDE/user.c
                  flagspi   0x0001ff       data     extern /home/blobby/ProgC/lecteur_cd/Code_IDE/user.c
                   keypad   0x000060       data     extern /home/blobby/ProgC/lecteur_cd/Code_IDE/user.c
               keypad_log   0x0000d6       data     extern /home/blobby/ProgC/lecteur_cd/Code_IDE/main.c
                   length   0x0000c4       data     extern /home/blobby/ProgC/lecteur_cd/Code_IDE/user.c
               p_dataDSPY   0x0000c6       data     extern /home/blobby/ProgC/lecteur_cd/Code_IDE/main.c
                    p_spi   0x0000f1       data     extern /home/blobby/ProgC/lecteur_cd/Code_IDE/main.c
               product_id   0x000065       data     extern /home/blobby/ProgC/lecteur_cd/Code_IDE/user.c
                     prom   0x0001f4       data     static C:\MCC18\v3_39\src\traditional\startup\c018i.c
             start_IR_LSB   0x0000e9       data     extern /home/blobby/ProgC/lecteur_cd/Code_IDE/main.c
             start_IR_MSB   0x0000e5       data     extern /home/blobby/ProgC/lecteur_cd/Code_IDE/main.c
               trame_capt   0x0000d9       data     extern /home/blobby/ProgC/lecteur_cd/Code_IDE/main.c
                  trameok   0x000061       data     extern /home/blobby/ProgC/lecteur_cd/Code_IDE/user.c



                              Symbols - Sorted by Address
                     Name    Address   Location    Storage File                     
                ---------  ---------  ---------  --------- ---------                
                   _entry   0x000000    program     extern C:\MCC18\v3_39\src\traditional\startup\c018i.c
       ___return_lbl00000   0x000004    program     static                          
    interrupt_vector_high   0x000008    program     extern /home/blobby/ProgC/lecteur_cd/Code_IDE/main.c
       ___return_lbl00000   0x00000c    program     static                          
               __string_0   0x00000e    program     static /home/blobby/ProgC/lecteur_cd/Code_IDE/user.c
               _user_putc   0x000012    program     extern C:\MCC18\v3_39\src\traditional\stdclib\_user_putc.c
                   __init   0x000014    program     extern C:\MCC18\v3_39\src\traditional\stdclib\__init.c
     interrupt_vector_low   0x000018    program     extern /home/blobby/ProgC/lecteur_cd/Code_IDE/main.c
       ___return_lbl00001   0x00001c    program     static                          
             InitMCP23S17   0x00001e    program     extern /home/blobby/ProgC/lecteur_cd/Code_IDE/user.c
              InitSRC4392   0x000268    program     extern /home/blobby/ProgC/lecteur_cd/Code_IDE/user.c
              InitPCM1792   0x0003e6    program     extern /home/blobby/ProgC/lecteur_cd/Code_IDE/user.c
                 InitDSPY   0x000460    program     extern /home/blobby/ProgC/lecteur_cd/Code_IDE/user.c
              HandleSIRSC   0x000722    program     extern /home/blobby/ProgC/lecteur_cd/Code_IDE/user.c
            ProcessIrCode   0x00082a    program     extern /home/blobby/ProgC/lecteur_cd/Code_IDE/user.c
                EjectLoad   0x000bb6    program     extern /home/blobby/ProgC/lecteur_cd/Code_IDE/user.c
                PlayPause   0x000f6c    program     extern /home/blobby/ProgC/lecteur_cd/Code_IDE/user.c
                NextTrack   0x001632    program     extern /home/blobby/ProgC/lecteur_cd/Code_IDE/user.c
            PreviousTrack   0x001846    program     extern /home/blobby/ProgC/lecteur_cd/Code_IDE/user.c
              LoadTOCInfo   0x001b9e    program     extern /home/blobby/ProgC/lecteur_cd/Code_IDE/user.c
         UpdateCurrentMSF   0x001ef4    program     extern /home/blobby/ProgC/lecteur_cd/Code_IDE/user.c
                 VolumeUp   0x002280    program     extern /home/blobby/ProgC/lecteur_cd/Code_IDE/user.c
               VolumeDown   0x0022d0    program     extern /home/blobby/ProgC/lecteur_cd/Code_IDE/user.c
               SoundLevel   0x002316    program     extern /home/blobby/ProgC/lecteur_cd/Code_IDE/user.c
                     Mute   0x0024e4    program     extern /home/blobby/ProgC/lecteur_cd/Code_IDE/user.c
                 SetAuxIn   0x00258a    program     extern /home/blobby/ProgC/lecteur_cd/Code_IDE/user.c
            ConvertDigit4   0x0027aa    program     extern /home/blobby/ProgC/lecteur_cd/Code_IDE/user.c
            ConvertDigit2   0x002828    program     extern /home/blobby/ProgC/lecteur_cd/Code_IDE/user.c
                ProcessIO   0x0028a6    program     extern /home/blobby/ProgC/lecteur_cd/Code_IDE/user.c
                Mech_Stat   0x002bd0    program     extern /home/blobby/ProgC/lecteur_cd/Code_IDE/fct_ide.c
                    Eject   0x002fe6    program     extern /home/blobby/ProgC/lecteur_cd/Code_IDE/fct_ide.c
                     Load   0x003178    program     extern /home/blobby/ProgC/lecteur_cd/Code_IDE/fct_ide.c
          ___for_lbl00043   0x0031a0    program     static                          
          ___for_lbl00041   0x0031d6    program     static                          
          ___for_lbl00042   0x0031e2    program     static                          
        ___while_lbl00044   0x003212    program     static                          
              __tmplbl_10   0x00324c    program     static                          
           ___if_lbl00046   0x003252    program     static                          
        ___while_lbl00045   0x003254    program     static                          
        ___while_lbl00047   0x003274    program     static                          
        ___while_lbl00048   0x0032da    program     static                          
        ___while_lbl00049   0x0032ee    program     static                          
              __tmplbl_11   0x003328    program     static                          
           ___if_lbl00051   0x00332e    program     static                          
        ___while_lbl00050   0x003330    program     static                          
       ___return_lbl00040   0x003334    program     static                          
                 Read_TOC   0x00333c    program     extern /home/blobby/ProgC/lecteur_cd/Code_IDE/fct_ide.c
          ___for_lbl00055   0x003364    program     static                          
          ___for_lbl00053   0x00339a    program     static                          
          ___for_lbl00054   0x0033a6    program     static                          
        ___while_lbl00056   0x0033ea    program     static                          
           ___if_lbl00058   0x00341a    program     static                          
              __tmplbl_12   0x003436    program     static                          
           ___if_lbl00059   0x00343c    program     static                          
        ___while_lbl00057   0x00343e    program     static                          
        ___while_lbl00060   0x00345e    program     static                          
        ___while_lbl00061   0x0034c4    program     static                          
        ___while_lbl00062   0x0034d6    program     static                          
              __tmplbl_14   0x0034f2    program     static                          
              __tmplbl_13   0x0034fa    program     static                          
        ___while_lbl00065   0x003516    program     static                          
              __tmplbl_15   0x003550    program     static                          
           ___if_lbl00067   0x003556    program     static                          
        ___while_lbl00066   0x003558    program     static                          
        ___while_lbl00068   0x003570    program     static                          
           ___if_lbl00070   0x0035cc    program     static                          
        ___while_lbl00069   0x0035cc    program     static                          
              __tmplbl_16   0x0035fe    program     static                          
           ___if_lbl00071   0x003604    program     static                          
        ___while_lbl00063   0x003606    program     static                          
        ___while_lbl00072   0x00360e    program     static                          
           ___if_lbl00074   0x00370e    program     static                          
        ___while_lbl00073   0x003710    program     static                          
       ___return_lbl00052   0x003714    program     static                          
                 Play_MSF   0x00371c    program     extern /home/blobby/ProgC/lecteur_cd/Code_IDE/fct_ide.c
         Play_MSF_address   0x003a02    program     extern /home/blobby/ProgC/lecteur_cd/Code_IDE/fct_ide.c
        Read_AbsMSF_SubCh   0x003cb6    program     extern /home/blobby/ProgC/lecteur_cd/Code_IDE/fct_ide.c
        Read_RelMSF_SubCh   0x0041d2    program     extern /home/blobby/ProgC/lecteur_cd/Code_IDE/fct_ide.c
                   F_Scan   0x0046c6    program     extern /home/blobby/ProgC/lecteur_cd/Code_IDE/fct_ide.c
                   R_Scan   0x0048c8    program     extern /home/blobby/ProgC/lecteur_cd/Code_IDE/fct_ide.c
                     Stop   0x004ad4    program     extern /home/blobby/ProgC/lecteur_cd/Code_IDE/fct_ide.c
                    Pause   0x004c5c    program     extern /home/blobby/ProgC/lecteur_cd/Code_IDE/fct_ide.c
                   Resume   0x004de8    program     extern /home/blobby/ProgC/lecteur_cd/Code_IDE/fct_ide.c
                  INQUIRY   0x004f7a    program     extern /home/blobby/ProgC/lecteur_cd/Code_IDE/fct_ide.c
            int_flag_high   0x005348    program     extern /home/blobby/ProgC/lecteur_cd/Code_IDE/main.c
      ___case_90_lbl00091   0x005db8    program     static                          
      ___case_94_lbl00094   0x005de8    program     static                          
      ___case_98_lbl00095   0x005e1a    program     static                          
      ___case_99_lbl00099   0x005e94    program     static                          
      ___default_lbl00104   0x005f60    program     static                          
   ___switchexit_lbl00020   0x005f60    program     static                          
           ___if_lbl00107   0x005f90    program     static                          
             int_flag_low   0x006176    program     extern /home/blobby/ProgC/lecteur_cd/Code_IDE/main.c
                     main   0x0061ae    program     extern /home/blobby/ProgC/lecteur_cd/Code_IDE/main.c
            s_put_n_chars   0x0062d6    program     static C:\MCC18\v3_39\src\traditional\stdclib\vfprintf.c
                 vfprintf   0x006302    program     extern C:\MCC18\v3_39\src\traditional\stdclib\vfprintf.c
              __tmplbl_85   0x00632c    program     static                          
              __tmplbl_44   0x006bda    program     static                          
              __tmplbl_43   0x006bf4    program     static                          
                   __pa_0   0x006c16    program     static C:\MCC18\v3_39\src\traditional\stdclib\vfprintf.c
                   __pa_1   0x006c1e    program     static C:\MCC18\v3_39\src\traditional\stdclib\vfprintf.c
                   __pa_2   0x006c28    program     static C:\MCC18\v3_39\src\traditional\stdclib\vfprintf.c
                   __pa_3   0x006c32    program     static C:\MCC18\v3_39\src\traditional\stdclib\vfprintf.c
                   __pa_4   0x006c4a    program     static C:\MCC18\v3_39\src\traditional\stdclib\vfprintf.c
                   __pa_5   0x006c5e    program     static C:\MCC18\v3_39\src\traditional\stdclib\vfprintf.c
                   __pa_6   0x006c7a    program     static C:\MCC18\v3_39\src\traditional\stdclib\vfprintf.c
                   __pa_7   0x006c84    program     static C:\MCC18\v3_39\src\traditional\stdclib\vfprintf.c
                   __pa_8   0x006c90    program     static C:\MCC18\v3_39\src\traditional\stdclib\vfprintf.c
                   __pa_9   0x006cb2    program     static C:\MCC18\v3_39\src\traditional\stdclib\vfprintf.c
                  __pa_10   0x006cd2    program     static C:\MCC18\v3_39\src\traditional\stdclib\vfprintf.c
                  __pa_11   0x006ce0    program     static C:\MCC18\v3_39\src\traditional\stdclib\vfprintf.c
                  __pa_12   0x006cf6    program     static C:\MCC18\v3_39\src\traditional\stdclib\vfprintf.c
                  __pa_13   0x006d10    program     static C:\MCC18\v3_39\src\traditional\stdclib\vfprintf.c
                  __pa_14   0x006d28    program     static C:\MCC18\v3_39\src\traditional\stdclib\vfprintf.c
                  __pa_15   0x006d38    program     static C:\MCC18\v3_39\src\traditional\stdclib\vfprintf.c
                  __pa_16   0x006d4e    program     static C:\MCC18\v3_39\src\traditional\stdclib\vfprintf.c
                  __pa_17   0x006d60    program     static C:\MCC18\v3_39\src\traditional\stdclib\vfprintf.c
                  __pa_18   0x006d72    program     static C:\MCC18\v3_39\src\traditional\stdclib\vfprintf.c
                  __pa_19   0x006d7c    program     static C:\MCC18\v3_39\src\traditional\stdclib\vfprintf.c
                  __pa_20   0x006d8c    program     static C:\MCC18\v3_39\src\traditional\stdclib\vfprintf.c
                  __pa_21   0x006d9c    program     static C:\MCC18\v3_39\src\traditional\stdclib\vfprintf.c
                  __pa_22   0x006dac    program     static C:\MCC18\v3_39\src\traditional\stdclib\vfprintf.c
              __tmplbl_42   0x006dac    program     static                          
                  __pa_23   0x006db8    program     static C:\MCC18\v3_39\src\traditional\stdclib\vfprintf.c
                  __pa_24   0x006dc6    program     static C:\MCC18\v3_39\src\traditional\stdclib\vfprintf.c
                  __pa_25   0x006dce    program     static C:\MCC18\v3_39\src\traditional\stdclib\vfprintf.c
                  __pa_26   0x006dd8    program     static C:\MCC18\v3_39\src\traditional\stdclib\vfprintf.c
                  __pa_27   0x006de2    program     static C:\MCC18\v3_39\src\traditional\stdclib\vfprintf.c
                  __pa_28   0x006dea    program     static C:\MCC18\v3_39\src\traditional\stdclib\vfprintf.c
                  __pa_29   0x006df8    program     static C:\MCC18\v3_39\src\traditional\stdclib\vfprintf.c
                  __pa_30   0x006e14    program     static C:\MCC18\v3_39\src\traditional\stdclib\vfprintf.c
                  __pa_31   0x006e2e    program     static C:\MCC18\v3_39\src\traditional\stdclib\vfprintf.c
                  __pa_32   0x006e48    program     static C:\MCC18\v3_39\src\traditional\stdclib\vfprintf.c
                  __pa_33   0x006e60    program     static C:\MCC18\v3_39\src\traditional\stdclib\vfprintf.c
                  __pa_34   0x006e6a    program     static C:\MCC18\v3_39\src\traditional\stdclib\vfprintf.c
                  __pa_35   0x006e78    program     static C:\MCC18\v3_39\src\traditional\stdclib\vfprintf.c
                  __pa_36   0x006e80    program     static C:\MCC18\v3_39\src\traditional\stdclib\vfprintf.c
                  __pa_37   0x006e8a    program     static C:\MCC18\v3_39\src\traditional\stdclib\vfprintf.c
                  __pa_38   0x006e9a    program     static C:\MCC18\v3_39\src\traditional\stdclib\vfprintf.c
                  __pa_39   0x006ea8    program     static C:\MCC18\v3_39\src\traditional\stdclib\vfprintf.c
                  __pa_40   0x006eb4    program     static C:\MCC18\v3_39\src\traditional\stdclib\vfprintf.c
                  __pa_41   0x006ec0    program     static C:\MCC18\v3_39\src\traditional\stdclib\vfprintf.c
                  __pa_42   0x006ec8    program     static C:\MCC18\v3_39\src\traditional\stdclib\vfprintf.c
                  __pa_43   0x006ed2    program     static C:\MCC18\v3_39\src\traditional\stdclib\vfprintf.c
                  __pa_44   0x006ed8    program     static C:\MCC18\v3_39\src\traditional\stdclib\vfprintf.c
                  __pa_45   0x006ee2    program     static C:\MCC18\v3_39\src\traditional\stdclib\vfprintf.c
                  __pa_46   0x006eee    program     static C:\MCC18\v3_39\src\traditional\stdclib\vfprintf.c
               Reset_Hard   0x006ef8    program     extern /home/blobby/ProgC/lecteur_cd/Code_IDE/interface_register.c
               Read_Error   0x006f2e    program     extern /home/blobby/ProgC/lecteur_cd/Code_IDE/interface_register.c
       ___return_lbl00001   0x006f64    program     static                          
          Read_Sect_Count   0x006f6e    program     extern /home/blobby/ProgC/lecteur_cd/Code_IDE/interface_register.c
       ___return_lbl00002   0x006fa4    program     static                          
         Write_Sect_Count   0x006fae    program     extern /home/blobby/ProgC/lecteur_cd/Code_IDE/interface_register.c
       ___return_lbl00003   0x006fe0    program     static                          
         Read_Sect_Number   0x006fe8    program     extern /home/blobby/ProgC/lecteur_cd/Code_IDE/interface_register.c
       ___return_lbl00004   0x007020    program     static                          
        Write_Sect_Number   0x00702a    program     extern /home/blobby/ProgC/lecteur_cd/Code_IDE/interface_register.c
       ___return_lbl00005   0x00705c    program     static                          
              Read_Status   0x007064    program     extern /home/blobby/ProgC/lecteur_cd/Code_IDE/interface_register.c
       ___return_lbl00006   0x00709a    program     static                          
          Read_Alt_status   0x0070a4    program     extern /home/blobby/ProgC/lecteur_cd/Code_IDE/interface_register.c
       ___return_lbl00007   0x0070da    program     static                          
            Write_command   0x0070e4    program     extern /home/blobby/ProgC/lecteur_cd/Code_IDE/interface_register.c
       ___return_lbl00008   0x007116    program     static                          
            Read_Cyl_high   0x00711e    program     extern /home/blobby/ProgC/lecteur_cd/Code_IDE/interface_register.c
       ___return_lbl00009   0x007154    program     static                          
           Write_Cyl_high   0x00715e    program     extern /home/blobby/ProgC/lecteur_cd/Code_IDE/interface_register.c
       ___return_lbl00010   0x007190    program     static                          
             Read_Cyl_low   0x007198    program     extern /home/blobby/ProgC/lecteur_cd/Code_IDE/interface_register.c
       ___return_lbl00011   0x0071ce    program     static                          
            Write_Cyl_low   0x0071d8    program     extern /home/blobby/ProgC/lecteur_cd/Code_IDE/interface_register.c
       ___return_lbl00012   0x00720a    program     static                          
                Read_Data   0x007212    program     extern /home/blobby/ProgC/lecteur_cd/Code_IDE/interface_register.c
       ___return_lbl00013   0x007260    program     static                          
               Write_Data   0x007268    program     extern /home/blobby/ProgC/lecteur_cd/Code_IDE/interface_register.c
       ___return_lbl00014   0x0072b6    program     static                          
            Write_Dev_Ctr   0x0072be    program     extern /home/blobby/ProgC/lecteur_cd/Code_IDE/interface_register.c
       ___return_lbl00015   0x0072f0    program     static                          
            Read_Dev_Head   0x0072f8    program     extern /home/blobby/ProgC/lecteur_cd/Code_IDE/interface_register.c
       ___return_lbl00016   0x00732e    program     static                          
           Write_Dev_Head   0x007338    program     extern /home/blobby/ProgC/lecteur_cd/Code_IDE/interface_register.c
       ___return_lbl00017   0x00736a    program     static                          
           Write_Features   0x007372    program     extern /home/blobby/ProgC/lecteur_cd/Code_IDE/interface_register.c
       ___return_lbl00018   0x0073a4    program     static                          
                  sprintf   0x0073ac    program     extern C:\MCC18\v3_39\src\traditional\stdclib\sprintf.c
                 FXD1616S   0x007458    program     extern C:\MCC18\v3_39\src\traditional\math\fxd1616s.asm
                  DA1616S   0x00746a    program     static C:\MCC18\v3_39\src\traditional\math\fxd1616s.asm
                   D1616S   0x00747a    program     static C:\MCC18\v3_39\src\traditional\math\fxd1616s.asm
                 D1616SOK   0x007484    program     static C:\MCC18\v3_39\src\traditional\math\fxd1616s.asm
                D1616SNEG   0x007488    program     static C:\MCC18\v3_39\src\traditional\math\fxd1616s.asm
                  D1616SX   0x00749a    program     static C:\MCC18\v3_39\src\traditional\math\fxd1616s.asm
                 FXM1616S   0x0074a4    program     extern C:\MCC18\v3_39\src\traditional\math\fxm1616s.asm
               TSIGN1616A   0x0074f0    program     static C:\MCC18\v3_39\src\traditional\math\fxm1616s.asm
                _do_cinit   0x0074fe    program     extern C:\MCC18\v3_39\src\traditional\startup\c018i.c
                     test   0x007518    program     static                          
                copy_loop   0x007570    program     static                          
            copy_one_byte   0x007576    program     static                          
             done_copying   0x007584    program     static                          
                     done   0x00759a    program     static                          
       ___return_lbl00002   0x00759a    program     static                          
                Port_Init   0x00759c    program     extern /home/blobby/ProgC/lecteur_cd/Code_IDE/pic_init.c
                 Spi_Init   0x0075c4    program     extern /home/blobby/ProgC/lecteur_cd/Code_IDE/pic_init.c
                 INT_Init   0x0075d8    program     extern /home/blobby/ProgC/lecteur_cd/Code_IDE/pic_init.c
              Timer0_Init   0x0075ec    program     extern /home/blobby/ProgC/lecteur_cd/Code_IDE/pic_init.c
              Timer1_Init   0x007600    program     extern /home/blobby/ProgC/lecteur_cd/Code_IDE/pic_init.c
              Timer2_Init   0x007610    program     extern /home/blobby/ProgC/lecteur_cd/Code_IDE/pic_init.c
                     putc   0x00762e    program     extern C:\MCC18\v3_39\src\traditional\stdclib\putc.c
                  FXM3232   0x0076b2    program     extern C:\MCC18\v3_39\src\traditional\math\fxm3232.c
       ___return_lbl00000   0x007720    program     static                          
                   strlen   0x007722    program     extern C:\MCC18\v3_39\src\traditional\stdclib\strlen.asm
                    jLoop   0x007732    program     static C:\MCC18\v3_39\src\traditional\stdclib\strlen.asm
                     jEnd   0x00773c    program     static C:\MCC18\v3_39\src\traditional\stdclib\strlen.asm
                strlenpgm   0x00773e    program     extern C:\MCC18\v3_39\src\traditional\stdclib\slenpgm.asm
                    jLoop   0x00775c    program     static C:\MCC18\v3_39\src\traditional\stdclib\slenpgm.asm
                   _2jEnd   0x007772    program     static C:\MCC18\v3_39\src\traditional\stdclib\slenpgm.asm
                     jEnd   0x007774    program     static C:\MCC18\v3_39\src\traditional\stdclib\slenpgm.asm
                  spi_out   0x007788    program     extern /home/blobby/ProgC/lecteur_cd/Code_IDE/spi.c
                   spi_in   0x0077ac    program     extern /home/blobby/ProgC/lecteur_cd/Code_IDE/spi.c
                 FXD3232U   0x0077dc    program     extern C:\MCC18\v3_39\src\traditional\math\fxd3232u.c
                     loop   0x0077ea    program     static                          
                   _false   0x00781e    program     static                          
       ___return_lbl00000   0x007822    program     static                          
             Delay10KTCYx   0x007824    program     extern C:\MCC18\v3_39\src\traditional\delays\d10ktcyx.asm
                    D10Kx   0x00782e    program     static C:\MCC18\v3_39\src\traditional\delays\d10ktcyx.asm
                   D10K_1   0x007830    program     static C:\MCC18\v3_39\src\traditional\delays\d10ktcyx.asm
       _D10KTCYXCODE_0010   0x007834    program     static C:\MCC18\v3_39\src\traditional\delays\d10ktcyx.asm
                    D10Kl   0x00783c    program     static C:\MCC18\v3_39\src\traditional\delays\d10ktcyx.asm
       _D10KTCYXCODE_001C   0x007840    program     static C:\MCC18\v3_39\src\traditional\delays\d10ktcyx.asm
                 FXD1616U   0x007852    program     extern C:\MCC18\v3_39\src\traditional\math\fxd1616u.c
                     loop   0x00785c    program     static                          
                  endloop   0x007878    program     static                          
       ___return_lbl00000   0x00787c    program     static                          
                  isdigit   0x00787e    program     extern C:\MCC18\v3_39\src\traditional\stdclib\isdigit.asm
                   jMatch   0x00789e    program     static C:\MCC18\v3_39\src\traditional\stdclib\isdigit.asm
                 jNoMatch   0x0078a0    program     static C:\MCC18\v3_39\src\traditional\stdclib\isdigit.asm
            __zero_memory   0x0078a2    program     extern C:\MCC18\v3_39\src\traditional\proc\p18F6722.asm
                   loop_h   0x0078b0    program     static C:\MCC18\v3_39\src\traditional\proc\p18F6722.asm
               zero_block   0x0078b0    program     static C:\MCC18\v3_39\src\traditional\proc\p18F6722.asm
                compare_l   0x0078b8    program     static C:\MCC18\v3_39\src\traditional\proc\p18F6722.asm
                   loop_l   0x0078ba    program     static C:\MCC18\v3_39\src\traditional\proc\p18F6722.asm
                 _startup   0x0078c2    program     extern C:\MCC18\v3_39\src\traditional\startup\c018i.c
                     loop   0x0078d2    program     static                          
       ___return_lbl00001   0x0078dc    program     static                          
              _usart_putc   0x0078de    program     extern C:\MCC18\v3_39\src\pmc_common\USART\_usartpc.asm
                     loop   0x0078ee    program     static C:\MCC18\v3_39\src\pmc_common\USART\_usartpc.asm
              Delay10TCYx   0x0078fa    program     extern C:\MCC18\v3_39\src\traditional\delays\d10tcyx.asm
                     D10x   0x007902    program     static C:\MCC18\v3_39\src\traditional\delays\d10tcyx.asm
        _D10TCYXCODE_000A   0x007904    program     static C:\MCC18\v3_39\src\traditional\delays\d10tcyx.asm
        _D10TCYXCODE_000C   0x007906    program     static C:\MCC18\v3_39\src\traditional\delays\d10tcyx.asm
        _D10TCYXCODE_000E   0x007908    program     static C:\MCC18\v3_39\src\traditional\delays\d10tcyx.asm
                    D10_1   0x00790a    program     static C:\MCC18\v3_39\src\traditional\delays\d10tcyx.asm
                 s_digits   0x007910    program     static C:\MCC18\v3_39\src\traditional\stdclib\vfprintf.c
               __config_0   0x300001    program     static /home/blobby/ProgC/lecteur_cd/Code_IDE/main.c
               __config_1   0x300003    program     static /home/blobby/ProgC/lecteur_cd/Code_IDE/main.c
               __config_2   0x300006    program     static /home/blobby/ProgC/lecteur_cd/Code_IDE/main.c
                     SIGN   0x000000       data     extern C:\MCC18\v3_39\src\traditional\math\cmath18.asm
            __FPFLAGSbits   0x000001       data     extern C:\MCC18\v3_39\src\traditional\math\cmath18.asm
                __FPFLAGS   0x000001       data     extern C:\MCC18\v3_39\src\traditional\math\cmath18.asm
                  __REMB3   0x000002       data     extern C:\MCC18\v3_39\src\traditional\math\aarg.asm
                 __AARGB7   0x000002       data     extern C:\MCC18\v3_39\src\traditional\math\aarg.asm
                  __REMB2   0x000003       data     extern C:\MCC18\v3_39\src\traditional\math\aarg.asm
                 __AARGB6   0x000003       data     extern C:\MCC18\v3_39\src\traditional\math\aarg.asm
                  __REMB1   0x000004       data     extern C:\MCC18\v3_39\src\traditional\math\aarg.asm
                 __AARGB5   0x000004       data     extern C:\MCC18\v3_39\src\traditional\math\aarg.asm
                  __REMB0   0x000005       data     extern C:\MCC18\v3_39\src\traditional\math\aarg.asm
                 __AARGB4   0x000005       data     extern C:\MCC18\v3_39\src\traditional\math\aarg.asm
                 __AARGB3   0x000006       data     extern C:\MCC18\v3_39\src\traditional\math\aarg.asm
                 __AARGB2   0x000007       data     extern C:\MCC18\v3_39\src\traditional\math\aarg.asm
                 __AARGB1   0x000008       data     extern C:\MCC18\v3_39\src\traditional\math\aarg.asm
                 __AARGB0   0x000009       data     extern C:\MCC18\v3_39\src\traditional\math\aarg.asm
                   __AEXP   0x00000a       data     extern C:\MCC18\v3_39\src\traditional\math\aarg.asm
                 __BARGB3   0x00000b       data     extern C:\MCC18\v3_39\src\traditional\math\barg.asm
                 __BARGB2   0x00000c       data     extern C:\MCC18\v3_39\src\traditional\math\barg.asm
                 __BARGB1   0x00000d       data     extern C:\MCC18\v3_39\src\traditional\math\barg.asm
                 __BARGB0   0x00000e       data     extern C:\MCC18\v3_39\src\traditional\math\barg.asm
                   __BEXP   0x00000f       data     extern C:\MCC18\v3_39\src\traditional\math\barg.asm
                 __TEMPB3   0x000010       data     extern C:\MCC18\v3_39\src\traditional\math\temparg.asm
                 __TEMPB2   0x000011       data     extern C:\MCC18\v3_39\src\traditional\math\temparg.asm
                 __TEMPB1   0x000012       data     extern C:\MCC18\v3_39\src\traditional\math\temparg.asm
                   __TEMP   0x000013       data     extern C:\MCC18\v3_39\src\traditional\math\temparg.asm
                 __TEMPB0   0x000013       data     extern C:\MCC18\v3_39\src\traditional\math\temparg.asm
                  __tmp_0   0x000014       data     static C:\MCC18\v3_39\src\traditional\stdclib\vfprintf.c
                  __tmp_0   0x000014       data     static C:\MCC18\v3_39\src\traditional\stdclib\sprintf.c
                  __tmp_0   0x000014       data     static C:\MCC18\v3_39\src\traditional\stdclib\putc.c
                  __tmp_0   0x000014       data     static /home/blobby/ProgC/lecteur_cd/Code_IDE/main.c
                  __tmp_0   0x000014       data     static /home/blobby/ProgC/lecteur_cd/Code_IDE/fct_ide.c
                  __tmp_0   0x000014       data     static /home/blobby/ProgC/lecteur_cd/Code_IDE/user.c
                  __tmp_1   0x00001b       data     static /home/blobby/ProgC/lecteur_cd/Code_IDE/main.c
            DelayCounter2   0x00001c       data     extern C:\MCC18\v3_39\src\traditional\delays\delayd2.asm
            DelayCounter1   0x00001d       data     extern C:\MCC18\v3_39\src\traditional\delays\delayd1.asm
                   keypad   0x000060       data     extern /home/blobby/ProgC/lecteur_cd/Code_IDE/user.c
                  trameok   0x000061       data     extern /home/blobby/ProgC/lecteur_cd/Code_IDE/user.c
               product_id   0x000065       data     extern /home/blobby/ProgC/lecteur_cd/Code_IDE/user.c
                 CDStatus   0x0000a5       data     extern /home/blobby/ProgC/lecteur_cd/Code_IDE/user.c
              TrackToPlay   0x0000a7       data     extern /home/blobby/ProgC/lecteur_cd/Code_IDE/user.c
              NumbOfTrack   0x0000a9       data     extern /home/blobby/ProgC/lecteur_cd/Code_IDE/user.c
                MuteState   0x0000ab       data     extern /home/blobby/ProgC/lecteur_cd/Code_IDE/user.c
                 RightVol   0x0000ac       data     extern /home/blobby/ProgC/lecteur_cd/Code_IDE/user.c
                  LeftVol   0x0000ad       data     extern /home/blobby/ProgC/lecteur_cd/Code_IDE/user.c
              AudioStatus   0x0000ae       data     extern /home/blobby/ProgC/lecteur_cd/Code_IDE/user.c
                TimeoutEN   0x0000af       data     extern /home/blobby/ProgC/lecteur_cd/Code_IDE/user.c
                   buffer   0x0000b0       data     extern /home/blobby/ProgC/lecteur_cd/Code_IDE/user.c
                   length   0x0000c4       data     extern /home/blobby/ProgC/lecteur_cd/Code_IDE/user.c
               p_dataDSPY   0x0000c6       data     extern /home/blobby/ProgC/lecteur_cd/Code_IDE/main.c
               keypad_log   0x0000d6       data     extern /home/blobby/ProgC/lecteur_cd/Code_IDE/main.c
               trame_capt   0x0000d9       data     extern /home/blobby/ProgC/lecteur_cd/Code_IDE/main.c
                 count_IR   0x0000dd       data     extern /home/blobby/ProgC/lecteur_cd/Code_IDE/main.c
             count_IR_BIT   0x0000e1       data     extern /home/blobby/ProgC/lecteur_cd/Code_IDE/main.c
             start_IR_MSB   0x0000e5       data     extern /home/blobby/ProgC/lecteur_cd/Code_IDE/main.c
             start_IR_LSB   0x0000e9       data     extern /home/blobby/ProgC/lecteur_cd/Code_IDE/main.c
                count_spi   0x0000ed       data     extern /home/blobby/ProgC/lecteur_cd/Code_IDE/main.c
               count_info   0x0000ef       data     extern /home/blobby/ProgC/lecteur_cd/Code_IDE/main.c
                    p_spi   0x0000f1       data     extern /home/blobby/ProgC/lecteur_cd/Code_IDE/main.c
                     AMSF   0x0000f3       data     extern /home/blobby/ProgC/lecteur_cd/Code_IDE/main.c
                     RMSF   0x0000f7       data     extern /home/blobby/ProgC/lecteur_cd/Code_IDE/main.c
                  dataDAC   0x000100       data     extern /home/blobby/ProgC/lecteur_cd/Code_IDE/user.c
                  dataSRC   0x000114       data     extern /home/blobby/ProgC/lecteur_cd/Code_IDE/user.c
                dataDSPY1   0x000128       data     extern /home/blobby/ProgC/lecteur_cd/Code_IDE/user.c
                dataDSPY2   0x000138       data     extern /home/blobby/ProgC/lecteur_cd/Code_IDE/user.c
                dataDSPY3   0x000148       data     extern /home/blobby/ProgC/lecteur_cd/Code_IDE/user.c
                dataDSPY4   0x000158       data     extern /home/blobby/ProgC/lecteur_cd/Code_IDE/user.c
                dataDSPY5   0x000168       data     extern /home/blobby/ProgC/lecteur_cd/Code_IDE/user.c
                dataBlank   0x000178       data     extern /home/blobby/ProgC/lecteur_cd/Code_IDE/user.c
                 dataREAD   0x000188       data     extern /home/blobby/ProgC/lecteur_cd/Code_IDE/user.c
           dataDSPY1_info   0x000198       data     extern /home/blobby/ProgC/lecteur_cd/Code_IDE/user.c
           dataDSPY2_info   0x0001a8       data     extern /home/blobby/ProgC/lecteur_cd/Code_IDE/user.c
           dataDSPY3_info   0x0001b8       data     extern /home/blobby/ProgC/lecteur_cd/Code_IDE/user.c
           dataDSPY4_info   0x0001c8       data     extern /home/blobby/ProgC/lecteur_cd/Code_IDE/user.c
           dataDSPY5_info   0x0001d8       data     extern /home/blobby/ProgC/lecteur_cd/Code_IDE/user.c
               EndAddrMSF   0x0001e8       data     extern /home/blobby/ProgC/lecteur_cd/Code_IDE/user.c
        CurrentRelAddrMSF   0x0001ec       data     extern /home/blobby/ProgC/lecteur_cd/Code_IDE/user.c
        CurrentAbsAddrMSF   0x0001f0       data     extern /home/blobby/ProgC/lecteur_cd/Code_IDE/user.c
                     prom   0x0001f4       data     static C:\MCC18\v3_39\src\traditional\startup\c018i.c
                curr_byte   0x0001f7       data     static C:\MCC18\v3_39\src\traditional\startup\c018i.c
               curr_entry   0x0001f9       data     static C:\MCC18\v3_39\src\traditional\startup\c018i.c
                 data_ptr   0x0001fb       data     static C:\MCC18\v3_39\src\traditional\startup\c018i.c
                     flag   0x0001fe       data     extern /home/blobby/ProgC/lecteur_cd/Code_IDE/user.c
                  flagspi   0x0001ff       data     extern /home/blobby/ProgC/lecteur_cd/Code_IDE/user.c
                      TOC   0x000700       data     extern /home/blobby/ProgC/lecteur_cd/Code_IDE/user.c
           dataBUFFER_ide   0x000f00       data     extern /home/blobby/ProgC/lecteur_cd/Code_IDE/user.c
                 SSP2CON2   0x000f62       data     extern C:\MCC18\v3_39\src\traditional\proc\p18F6722.asm
             SSP2CON2bits   0x000f62       data     extern C:\MCC18\v3_39\src\traditional\proc\p18F6722.asm
                 SSP2CON1   0x000f63       data     extern C:\MCC18\v3_39\src\traditional\proc\p18F6722.asm
             SSP2CON1bits   0x000f63       data     extern C:\MCC18\v3_39\src\traditional\proc\p18F6722.asm
                 SSP2STAT   0x000f64       data     extern C:\MCC18\v3_39\src\traditional\proc\p18F6722.asm
             SSP2STATbits   0x000f64       data     extern C:\MCC18\v3_39\src\traditional\proc\p18F6722.asm
                  SSP2ADD   0x000f65       data     extern C:\MCC18\v3_39\src\traditional\proc\p18F6722.asm
                  SSP2BUF   0x000f66       data     extern C:\MCC18\v3_39\src\traditional\proc\p18F6722.asm
                 ECCP2DEL   0x000f67       data     extern C:\MCC18\v3_39\src\traditional\proc\p18F6722.asm
             ECCP2DELbits   0x000f67       data     extern C:\MCC18\v3_39\src\traditional\proc\p18F6722.asm
              ECCP2ASbits   0x000f68       data     extern C:\MCC18\v3_39\src\traditional\proc\p18F6722.asm
                  ECCP2AS   0x000f68       data     extern C:\MCC18\v3_39\src\traditional\proc\p18F6722.asm
             ECCP3DELbits   0x000f69       data     extern C:\MCC18\v3_39\src\traditional\proc\p18F6722.asm
                 ECCP3DEL   0x000f69       data     extern C:\MCC18\v3_39\src\traditional\proc\p18F6722.asm
                  ECCP3AS   0x000f6a       data     extern C:\MCC18\v3_39\src\traditional\proc\p18F6722.asm
              ECCP3ASbits   0x000f6a       data     extern C:\MCC18\v3_39\src\traditional\proc\p18F6722.asm
                   RCSTA2   0x000f6b       data     extern C:\MCC18\v3_39\src\traditional\proc\p18F6722.asm
               RCSTA2bits   0x000f6b       data     extern C:\MCC18\v3_39\src\traditional\proc\p18F6722.asm
                   TXSTA2   0x000f6c       data     extern C:\MCC18\v3_39\src\traditional\proc\p18F6722.asm
               TXSTA2bits   0x000f6c       data     extern C:\MCC18\v3_39\src\traditional\proc\p18F6722.asm
                   TXREG2   0x000f6d       data     extern C:\MCC18\v3_39\src\traditional\proc\p18F6722.asm
                   RCREG2   0x000f6e       data     extern C:\MCC18\v3_39\src\traditional\proc\p18F6722.asm
                   SPBRG2   0x000f6f       data     extern C:\MCC18\v3_39\src\traditional\proc\p18F6722.asm
                  CCP5CON   0x000f70       data     extern C:\MCC18\v3_39\src\traditional\proc\p18F6722.asm
              CCP5CONbits   0x000f70       data     extern C:\MCC18\v3_39\src\traditional\proc\p18F6722.asm
                    CCPR5   0x000f71       data     extern C:\MCC18\v3_39\src\traditional\proc\p18F6722.asm
                   CCPR5L   0x000f71       data     extern C:\MCC18\v3_39\src\traditional\proc\p18F6722.asm
                   CCPR5H   0x000f72       data     extern C:\MCC18\v3_39\src\traditional\proc\p18F6722.asm
                  CCP4CON   0x000f73       data     extern C:\MCC18\v3_39\src\traditional\proc\p18F6722.asm
              CCP4CONbits   0x000f73       data     extern C:\MCC18\v3_39\src\traditional\proc\p18F6722.asm
                   CCPR4L   0x000f74       data     extern C:\MCC18\v3_39\src\traditional\proc\p18F6722.asm
                    CCPR4   0x000f74       data     extern C:\MCC18\v3_39\src\traditional\proc\p18F6722.asm
                   CCPR4H   0x000f75       data     extern C:\MCC18\v3_39\src\traditional\proc\p18F6722.asm
                    T4CON   0x000f76       data     extern C:\MCC18\v3_39\src\traditional\proc\p18F6722.asm
                T4CONbits   0x000f76       data     extern C:\MCC18\v3_39\src\traditional\proc\p18F6722.asm
                      PR4   0x000f77       data     extern C:\MCC18\v3_39\src\traditional\proc\p18F6722.asm
                     TMR4   0x000f78       data     extern C:\MCC18\v3_39\src\traditional\proc\p18F6722.asm
                 ECCP1DEL   0x000f79       data     extern C:\MCC18\v3_39\src\traditional\proc\p18F6722.asm
             ECCP1DELbits   0x000f79       data     extern C:\MCC18\v3_39\src\traditional\proc\p18F6722.asm
                 BAUDCON2   0x000f7c       data     extern C:\MCC18\v3_39\src\traditional\proc\p18F6722.asm
             BAUDCON2bits   0x000f7c       data     extern C:\MCC18\v3_39\src\traditional\proc\p18F6722.asm
                  SPBRGH2   0x000f7d       data     extern C:\MCC18\v3_39\src\traditional\proc\p18F6722.asm
              BAUDCONbits   0x000f7e       data     extern C:\MCC18\v3_39\src\traditional\proc\p18F6722.asm
                 BAUDCON1   0x000f7e       data     extern C:\MCC18\v3_39\src\traditional\proc\p18F6722.asm
             BAUDCON1bits   0x000f7e       data     extern C:\MCC18\v3_39\src\traditional\proc\p18F6722.asm
                  BAUDCON   0x000f7e       data     extern C:\MCC18\v3_39\src\traditional\proc\p18F6722.asm
                  SPBRGH1   0x000f7f       data     extern C:\MCC18\v3_39\src\traditional\proc\p18F6722.asm
                   SPBRGH   0x000f7f       data     extern C:\MCC18\v3_39\src\traditional\proc\p18F6722.asm
                PORTAbits   0x000f80       data     extern C:\MCC18\v3_39\src\traditional\proc\p18F6722.asm
                    PORTA   0x000f80       data     extern C:\MCC18\v3_39\src\traditional\proc\p18F6722.asm
                PORTBbits   0x000f81       data     extern C:\MCC18\v3_39\src\traditional\proc\p18F6722.asm
                    PORTB   0x000f81       data     extern C:\MCC18\v3_39\src\traditional\proc\p18F6722.asm
                    PORTC   0x000f82       data     extern C:\MCC18\v3_39\src\traditional\proc\p18F6722.asm
                PORTCbits   0x000f82       data     extern C:\MCC18\v3_39\src\traditional\proc\p18F6722.asm
                    PORTD   0x000f83       data     extern C:\MCC18\v3_39\src\traditional\proc\p18F6722.asm
                PORTDbits   0x000f83       data     extern C:\MCC18\v3_39\src\traditional\proc\p18F6722.asm
                    PORTE   0x000f84       data     extern C:\MCC18\v3_39\src\traditional\proc\p18F6722.asm
                PORTEbits   0x000f84       data     extern C:\MCC18\v3_39\src\traditional\proc\p18F6722.asm
                PORTFbits   0x000f85       data     extern C:\MCC18\v3_39\src\traditional\proc\p18F6722.asm
                    PORTF   0x000f85       data     extern C:\MCC18\v3_39\src\traditional\proc\p18F6722.asm
                    PORTG   0x000f86       data     extern C:\MCC18\v3_39\src\traditional\proc\p18F6722.asm
                PORTGbits   0x000f86       data     extern C:\MCC18\v3_39\src\traditional\proc\p18F6722.asm
                 LATAbits   0x000f89       data     extern C:\MCC18\v3_39\src\traditional\proc\p18F6722.asm
                     LATA   0x000f89       data     extern C:\MCC18\v3_39\src\traditional\proc\p18F6722.asm
                     LATB   0x000f8a       data     extern C:\MCC18\v3_39\src\traditional\proc\p18F6722.asm
                 LATBbits   0x000f8a       data     extern C:\MCC18\v3_39\src\traditional\proc\p18F6722.asm
                     LATC   0x000f8b       data     extern C:\MCC18\v3_39\src\traditional\proc\p18F6722.asm
                 LATCbits   0x000f8b       data     extern C:\MCC18\v3_39\src\traditional\proc\p18F6722.asm
                     LATD   0x000f8c       data     extern C:\MCC18\v3_39\src\traditional\proc\p18F6722.asm
                 LATDbits   0x000f8c       data     extern C:\MCC18\v3_39\src\traditional\proc\p18F6722.asm
                     LATE   0x000f8d       data     extern C:\MCC18\v3_39\src\traditional\proc\p18F6722.asm
                 LATEbits   0x000f8d       data     extern C:\MCC18\v3_39\src\traditional\proc\p18F6722.asm
                     LATF   0x000f8e       data     extern C:\MCC18\v3_39\src\traditional\proc\p18F6722.asm
                 LATFbits   0x000f8e       data     extern C:\MCC18\v3_39\src\traditional\proc\p18F6722.asm
                     LATG   0x000f8f       data     extern C:\MCC18\v3_39\src\traditional\proc\p18F6722.asm
                 LATGbits   0x000f8f       data     extern C:\MCC18\v3_39\src\traditional\proc\p18F6722.asm
                TRISAbits   0x000f92       data     extern C:\MCC18\v3_39\src\traditional\proc\p18F6722.asm
                    TRISA   0x000f92       data     extern C:\MCC18\v3_39\src\traditional\proc\p18F6722.asm
                 DDRAbits   0x000f92       data     extern C:\MCC18\v3_39\src\traditional\proc\p18F6722.asm
                     DDRA   0x000f92       data     extern C:\MCC18\v3_39\src\traditional\proc\p18F6722.asm
                    TRISB   0x000f93       data     extern C:\MCC18\v3_39\src\traditional\proc\p18F6722.asm
                TRISBbits   0x000f93       data     extern C:\MCC18\v3_39\src\traditional\proc\p18F6722.asm
                 DDRBbits   0x000f93       data     extern C:\MCC18\v3_39\src\traditional\proc\p18F6722.asm
                     DDRB   0x000f93       data     extern C:\MCC18\v3_39\src\traditional\proc\p18F6722.asm
                    TRISC   0x000f94       data     extern C:\MCC18\v3_39\src\traditional\proc\p18F6722.asm
                TRISCbits   0x000f94       data     extern C:\MCC18\v3_39\src\traditional\proc\p18F6722.asm
                     DDRC   0x000f94       data     extern C:\MCC18\v3_39\src\traditional\proc\p18F6722.asm
                 DDRCbits   0x000f94       data     extern C:\MCC18\v3_39\src\traditional\proc\p18F6722.asm
                     DDRD   0x000f95       data     extern C:\MCC18\v3_39\src\traditional\proc\p18F6722.asm
                    TRISD   0x000f95       data     extern C:\MCC18\v3_39\src\traditional\proc\p18F6722.asm
                TRISDbits   0x000f95       data     extern C:\MCC18\v3_39\src\traditional\proc\p18F6722.asm
                 DDRDbits   0x000f95       data     extern C:\MCC18\v3_39\src\traditional\proc\p18F6722.asm
                    TRISE   0x000f96       data     extern C:\MCC18\v3_39\src\traditional\proc\p18F6722.asm
                TRISEbits   0x000f96       data     extern C:\MCC18\v3_39\src\traditional\proc\p18F6722.asm
                     DDRE   0x000f96       data     extern C:\MCC18\v3_39\src\traditional\proc\p18F6722.asm
                 DDREbits   0x000f96       data     extern C:\MCC18\v3_39\src\traditional\proc\p18F6722.asm
                     DDRF   0x000f97       data     extern C:\MCC18\v3_39\src\traditional\proc\p18F6722.asm
                 DDRFbits   0x000f97       data     extern C:\MCC18\v3_39\src\traditional\proc\p18F6722.asm
                TRISFbits   0x000f97       data     extern C:\MCC18\v3_39\src\traditional\proc\p18F6722.asm
                    TRISF   0x000f97       data     extern C:\MCC18\v3_39\src\traditional\proc\p18F6722.asm
                TRISGbits   0x000f98       data     extern C:\MCC18\v3_39\src\traditional\proc\p18F6722.asm
                 DDRGbits   0x000f98       data     extern C:\MCC18\v3_39\src\traditional\proc\p18F6722.asm
                     DDRG   0x000f98       data     extern C:\MCC18\v3_39\src\traditional\proc\p18F6722.asm
                    TRISG   0x000f98       data     extern C:\MCC18\v3_39\src\traditional\proc\p18F6722.asm
              OSCTUNEbits   0x000f9b       data     extern C:\MCC18\v3_39\src\traditional\proc\p18F6722.asm
                  OSCTUNE   0x000f9b       data     extern C:\MCC18\v3_39\src\traditional\proc\p18F6722.asm
                     PIE1   0x000f9d       data     extern C:\MCC18\v3_39\src\traditional\proc\p18F6722.asm
                 PIE1bits   0x000f9d       data     extern C:\MCC18\v3_39\src\traditional\proc\p18F6722.asm
                     PIR1   0x000f9e       data     extern C:\MCC18\v3_39\src\traditional\proc\p18F6722.asm
                 PIR1bits   0x000f9e       data     extern C:\MCC18\v3_39\src\traditional\proc\p18F6722.asm
                     IPR1   0x000f9f       data     extern C:\MCC18\v3_39\src\traditional\proc\p18F6722.asm
                 IPR1bits   0x000f9f       data     extern C:\MCC18\v3_39\src\traditional\proc\p18F6722.asm
                     PIE2   0x000fa0       data     extern C:\MCC18\v3_39\src\traditional\proc\p18F6722.asm
                 PIE2bits   0x000fa0       data     extern C:\MCC18\v3_39\src\traditional\proc\p18F6722.asm
                 PIR2bits   0x000fa1       data     extern C:\MCC18\v3_39\src\traditional\proc\p18F6722.asm
                     PIR2   0x000fa1       data     extern C:\MCC18\v3_39\src\traditional\proc\p18F6722.asm
                 IPR2bits   0x000fa2       data     extern C:\MCC18\v3_39\src\traditional\proc\p18F6722.asm
                     IPR2   0x000fa2       data     extern C:\MCC18\v3_39\src\traditional\proc\p18F6722.asm
                     PIE3   0x000fa3       data     extern C:\MCC18\v3_39\src\traditional\proc\p18F6722.asm
                 PIE3bits   0x000fa3       data     extern C:\MCC18\v3_39\src\traditional\proc\p18F6722.asm
                 PIR3bits   0x000fa4       data     extern C:\MCC18\v3_39\src\traditional\proc\p18F6722.asm
                     PIR3   0x000fa4       data     extern C:\MCC18\v3_39\src\traditional\proc\p18F6722.asm
                 IPR3bits   0x000fa5       data     extern C:\MCC18\v3_39\src\traditional\proc\p18F6722.asm
                     IPR3   0x000fa5       data     extern C:\MCC18\v3_39\src\traditional\proc\p18F6722.asm
                   EECON1   0x000fa6       data     extern C:\MCC18\v3_39\src\traditional\proc\p18F6722.asm
               EECON1bits   0x000fa6       data     extern C:\MCC18\v3_39\src\traditional\proc\p18F6722.asm
                   EECON2   0x000fa7       data     extern C:\MCC18\v3_39\src\traditional\proc\p18F6722.asm
                   EEDATA   0x000fa8       data     extern C:\MCC18\v3_39\src\traditional\proc\p18F6722.asm
                    EEADR   0x000fa9       data     extern C:\MCC18\v3_39\src\traditional\proc\p18F6722.asm
                   EEADRH   0x000faa       data     extern C:\MCC18\v3_39\src\traditional\proc\p18F6722.asm
               RCSTA1bits   0x000fab       data     extern C:\MCC18\v3_39\src\traditional\proc\p18F6722.asm
                   RCSTA1   0x000fab       data     extern C:\MCC18\v3_39\src\traditional\proc\p18F6722.asm
                    RCSTA   0x000fab       data     extern C:\MCC18\v3_39\src\traditional\proc\p18F6722.asm
                RCSTAbits   0x000fab       data     extern C:\MCC18\v3_39\src\traditional\proc\p18F6722.asm
                TXSTAbits   0x000fac       data     extern C:\MCC18\v3_39\src\traditional\proc\p18F6722.asm
               TXSTA1bits   0x000fac       data     extern C:\MCC18\v3_39\src\traditional\proc\p18F6722.asm
                    TXSTA   0x000fac       data     extern C:\MCC18\v3_39\src\traditional\proc\p18F6722.asm
                   TXSTA1   0x000fac       data     extern C:\MCC18\v3_39\src\traditional\proc\p18F6722.asm
                    TXREG   0x000fad       data     extern C:\MCC18\v3_39\src\traditional\proc\p18F6722.asm
                   TXREG1   0x000fad       data     extern C:\MCC18\v3_39\src\traditional\proc\p18F6722.asm
                    RCREG   0x000fae       data     extern C:\MCC18\v3_39\src\traditional\proc\p18F6722.asm
                   RCREG1   0x000fae       data     extern C:\MCC18\v3_39\src\traditional\proc\p18F6722.asm
                    SPBRG   0x000faf       data     extern C:\MCC18\v3_39\src\traditional\proc\p18F6722.asm
                   SPBRG1   0x000faf       data     extern C:\MCC18\v3_39\src\traditional\proc\p18F6722.asm
               PSPCONbits   0x000fb0       data     extern C:\MCC18\v3_39\src\traditional\proc\p18F6722.asm
                   PSPCON   0x000fb0       data     extern C:\MCC18\v3_39\src\traditional\proc\p18F6722.asm
                    T3CON   0x000fb1       data     extern C:\MCC18\v3_39\src\traditional\proc\p18F6722.asm
                T3CONbits   0x000fb1       data     extern C:\MCC18\v3_39\src\traditional\proc\p18F6722.asm
                    TMR3L   0x000fb2       data     extern C:\MCC18\v3_39\src\traditional\proc\p18F6722.asm
                    TMR3H   0x000fb3       data     extern C:\MCC18\v3_39\src\traditional\proc\p18F6722.asm
                CMCONbits   0x000fb4       data     extern C:\MCC18\v3_39\src\traditional\proc\p18F6722.asm
                    CMCON   0x000fb4       data     extern C:\MCC18\v3_39\src\traditional\proc\p18F6722.asm
               CVRCONbits   0x000fb5       data     extern C:\MCC18\v3_39\src\traditional\proc\p18F6722.asm
                   CVRCON   0x000fb5       data     extern C:\MCC18\v3_39\src\traditional\proc\p18F6722.asm
              ECCP1ASbits   0x000fb6       data     extern C:\MCC18\v3_39\src\traditional\proc\p18F6722.asm
                  ECCP1AS   0x000fb6       data     extern C:\MCC18\v3_39\src\traditional\proc\p18F6722.asm
                 ECCP3CON   0x000fb7       data     extern C:\MCC18\v3_39\src\traditional\proc\p18F6722.asm
             ECCP3CONbits   0x000fb7       data     extern C:\MCC18\v3_39\src\traditional\proc\p18F6722.asm
              CCP3CONbits   0x000fb7       data     extern C:\MCC18\v3_39\src\traditional\proc\p18F6722.asm
                  CCP3CON   0x000fb7       data     extern C:\MCC18\v3_39\src\traditional\proc\p18F6722.asm
                   CCPR3L   0x000fb8       data     extern C:\MCC18\v3_39\src\traditional\proc\p18F6722.asm
                    CCPR3   0x000fb8       data     extern C:\MCC18\v3_39\src\traditional\proc\p18F6722.asm
                   CCPR3H   0x000fb9       data     extern C:\MCC18\v3_39\src\traditional\proc\p18F6722.asm
                  CCP2CON   0x000fba       data     extern C:\MCC18\v3_39\src\traditional\proc\p18F6722.asm
              CCP2CONbits   0x000fba       data     extern C:\MCC18\v3_39\src\traditional\proc\p18F6722.asm
             ECCP2CONbits   0x000fba       data     extern C:\MCC18\v3_39\src\traditional\proc\p18F6722.asm
                 ECCP2CON   0x000fba       data     extern C:\MCC18\v3_39\src\traditional\proc\p18F6722.asm
                   CCPR2L   0x000fbb       data     extern C:\MCC18\v3_39\src\traditional\proc\p18F6722.asm
                    CCPR2   0x000fbb       data     extern C:\MCC18\v3_39\src\traditional\proc\p18F6722.asm
                   CCPR2H   0x000fbc       data     extern C:\MCC18\v3_39\src\traditional\proc\p18F6722.asm
                  CCP1CON   0x000fbd       data     extern C:\MCC18\v3_39\src\traditional\proc\p18F6722.asm
              CCP1CONbits   0x000fbd       data     extern C:\MCC18\v3_39\src\traditional\proc\p18F6722.asm
             ECCP1CONbits   0x000fbd       data     extern C:\MCC18\v3_39\src\traditional\proc\p18F6722.asm
                 ECCP1CON   0x000fbd       data     extern C:\MCC18\v3_39\src\traditional\proc\p18F6722.asm
                    CCPR1   0x000fbe       data     extern C:\MCC18\v3_39\src\traditional\proc\p18F6722.asm
                   CCPR1L   0x000fbe       data     extern C:\MCC18\v3_39\src\traditional\proc\p18F6722.asm
                   CCPR1H   0x000fbf       data     extern C:\MCC18\v3_39\src\traditional\proc\p18F6722.asm
                   ADCON2   0x000fc0       data     extern C:\MCC18\v3_39\src\traditional\proc\p18F6722.asm
               ADCON2bits   0x000fc0       data     extern C:\MCC18\v3_39\src\traditional\proc\p18F6722.asm
               ADCON1bits   0x000fc1       data     extern C:\MCC18\v3_39\src\traditional\proc\p18F6722.asm
                   ADCON1   0x000fc1       data     extern C:\MCC18\v3_39\src\traditional\proc\p18F6722.asm
               ADCON0bits   0x000fc2       data     extern C:\MCC18\v3_39\src\traditional\proc\p18F6722.asm
                   ADCON0   0x000fc2       data     extern C:\MCC18\v3_39\src\traditional\proc\p18F6722.asm
                    ADRES   0x000fc3       data     extern C:\MCC18\v3_39\src\traditional\proc\p18F6722.asm
                   ADRESL   0x000fc3       data     extern C:\MCC18\v3_39\src\traditional\proc\p18F6722.asm
                   ADRESH   0x000fc4       data     extern C:\MCC18\v3_39\src\traditional\proc\p18F6722.asm
                  SSPCON2   0x000fc5       data     extern C:\MCC18\v3_39\src\traditional\proc\p18F6722.asm
             SSP1CON2bits   0x000fc5       data     extern C:\MCC18\v3_39\src\traditional\proc\p18F6722.asm
                 SSP1CON2   0x000fc5       data     extern C:\MCC18\v3_39\src\traditional\proc\p18F6722.asm
              SSPCON2bits   0x000fc5       data     extern C:\MCC18\v3_39\src\traditional\proc\p18F6722.asm
                  SSPCON1   0x000fc6       data     extern C:\MCC18\v3_39\src\traditional\proc\p18F6722.asm
              SSPCON1bits   0x000fc6       data     extern C:\MCC18\v3_39\src\traditional\proc\p18F6722.asm
             SSP1CON1bits   0x000fc6       data     extern C:\MCC18\v3_39\src\traditional\proc\p18F6722.asm
                 SSP1CON1   0x000fc6       data     extern C:\MCC18\v3_39\src\traditional\proc\p18F6722.asm
                 SSP1STAT   0x000fc7       data     extern C:\MCC18\v3_39\src\traditional\proc\p18F6722.asm
             SSP1STATbits   0x000fc7       data     extern C:\MCC18\v3_39\src\traditional\proc\p18F6722.asm
                  SSPSTAT   0x000fc7       data     extern C:\MCC18\v3_39\src\traditional\proc\p18F6722.asm
              SSPSTATbits   0x000fc7       data     extern C:\MCC18\v3_39\src\traditional\proc\p18F6722.asm
                  SSP1ADD   0x000fc8       data     extern C:\MCC18\v3_39\src\traditional\proc\p18F6722.asm
                   SSPADD   0x000fc8       data     extern C:\MCC18\v3_39\src\traditional\proc\p18F6722.asm
                   SSPBUF   0x000fc9       data     extern C:\MCC18\v3_39\src\traditional\proc\p18F6722.asm
                  SSP1BUF   0x000fc9       data     extern C:\MCC18\v3_39\src\traditional\proc\p18F6722.asm
                T2CONbits   0x000fca       data     extern C:\MCC18\v3_39\src\traditional\proc\p18F6722.asm
                    T2CON   0x000fca       data     extern C:\MCC18\v3_39\src\traditional\proc\p18F6722.asm
                      PR2   0x000fcb       data     extern C:\MCC18\v3_39\src\traditional\proc\p18F6722.asm
                     TMR2   0x000fcc       data     extern C:\MCC18\v3_39\src\traditional\proc\p18F6722.asm
                    T1CON   0x000fcd       data     extern C:\MCC18\v3_39\src\traditional\proc\p18F6722.asm
                T1CONbits   0x000fcd       data     extern C:\MCC18\v3_39\src\traditional\proc\p18F6722.asm
                    TMR1L   0x000fce       data     extern C:\MCC18\v3_39\src\traditional\proc\p18F6722.asm
                    TMR1H   0x000fcf       data     extern C:\MCC18\v3_39\src\traditional\proc\p18F6722.asm
                 RCONbits   0x000fd0       data     extern C:\MCC18\v3_39\src\traditional\proc\p18F6722.asm
                     RCON   0x000fd0       data     extern C:\MCC18\v3_39\src\traditional\proc\p18F6722.asm
               WDTCONbits   0x000fd1       data     extern C:\MCC18\v3_39\src\traditional\proc\p18F6722.asm
                   WDTCON   0x000fd1       data     extern C:\MCC18\v3_39\src\traditional\proc\p18F6722.asm
                   LVDCON   0x000fd2       data     extern C:\MCC18\v3_39\src\traditional\proc\p18F6722.asm
               LVDCONbits   0x000fd2       data     extern C:\MCC18\v3_39\src\traditional\proc\p18F6722.asm
                  HLVDCON   0x000fd2       data     extern C:\MCC18\v3_39\src\traditional\proc\p18F6722.asm
              HLVDCONbits   0x000fd2       data     extern C:\MCC18\v3_39\src\traditional\proc\p18F6722.asm
               OSCCONbits   0x000fd3       data     extern C:\MCC18\v3_39\src\traditional\proc\p18F6722.asm
                   OSCCON   0x000fd3       data     extern C:\MCC18\v3_39\src\traditional\proc\p18F6722.asm
                    T0CON   0x000fd5       data     extern C:\MCC18\v3_39\src\traditional\proc\p18F6722.asm
                T0CONbits   0x000fd5       data     extern C:\MCC18\v3_39\src\traditional\proc\p18F6722.asm
                    TMR0L   0x000fd6       data     extern C:\MCC18\v3_39\src\traditional\proc\p18F6722.asm
                    TMR0H   0x000fd7       data     extern C:\MCC18\v3_39\src\traditional\proc\p18F6722.asm
               STATUSbits   0x000fd8       data     extern C:\MCC18\v3_39\src\traditional\proc\p18F6722.asm
                   STATUS   0x000fd8       data     extern C:\MCC18\v3_39\src\traditional\proc\p18F6722.asm
                     FSR2   0x000fd9       data     extern C:\MCC18\v3_39\src\traditional\proc\p18F6722.asm
                    FSR2L   0x000fd9       data     extern C:\MCC18\v3_39\src\traditional\proc\p18F6722.asm
                    FSR2H   0x000fda       data     extern C:\MCC18\v3_39\src\traditional\proc\p18F6722.asm
                   PLUSW2   0x000fdb       data     extern C:\MCC18\v3_39\src\traditional\proc\p18F6722.asm
                  PREINC2   0x000fdc       data     extern C:\MCC18\v3_39\src\traditional\proc\p18F6722.asm
                 POSTDEC2   0x000fdd       data     extern C:\MCC18\v3_39\src\traditional\proc\p18F6722.asm
                 POSTINC2   0x000fde       data     extern C:\MCC18\v3_39\src\traditional\proc\p18F6722.asm
                    INDF2   0x000fdf       data     extern C:\MCC18\v3_39\src\traditional\proc\p18F6722.asm
                      BSR   0x000fe0       data     extern C:\MCC18\v3_39\src\traditional\proc\p18F6722.asm
                    FSR1L   0x000fe1       data     extern C:\MCC18\v3_39\src\traditional\proc\p18F6722.asm
                     FSR1   0x000fe1       data     extern C:\MCC18\v3_39\src\traditional\proc\p18F6722.asm
                    FSR1H   0x000fe2       data     extern C:\MCC18\v3_39\src\traditional\proc\p18F6722.asm
                   PLUSW1   0x000fe3       data     extern C:\MCC18\v3_39\src\traditional\proc\p18F6722.asm
                  PREINC1   0x000fe4       data     extern C:\MCC18\v3_39\src\traditional\proc\p18F6722.asm
                 POSTDEC1   0x000fe5       data     extern C:\MCC18\v3_39\src\traditional\proc\p18F6722.asm
                 POSTINC1   0x000fe6       data     extern C:\MCC18\v3_39\src\traditional\proc\p18F6722.asm
                    INDF1   0x000fe7       data     extern C:\MCC18\v3_39\src\traditional\proc\p18F6722.asm
                     WREG   0x000fe8       data     extern C:\MCC18\v3_39\src\traditional\proc\p18F6722.asm
                    FSR0L   0x000fe9       data     extern C:\MCC18\v3_39\src\traditional\proc\p18F6722.asm
                     FSR0   0x000fe9       data     extern C:\MCC18\v3_39\src\traditional\proc\p18F6722.asm
                    FSR0H   0x000fea       data     extern C:\MCC18\v3_39\src\traditional\proc\p18F6722.asm
                   PLUSW0   0x000feb       data     extern C:\MCC18\v3_39\src\traditional\proc\p18F6722.asm
                  PREINC0   0x000fec       data     extern C:\MCC18\v3_39\src\traditional\proc\p18F6722.asm
                 POSTDEC0   0x000fed       data     extern C:\MCC18\v3_39\src\traditional\proc\p18F6722.asm
                 POSTINC0   0x000fee       data     extern C:\MCC18\v3_39\src\traditional\proc\p18F6722.asm
                    INDF0   0x000fef       data     extern C:\MCC18\v3_39\src\traditional\proc\p18F6722.asm
              INTCON3bits   0x000ff0       data     extern C:\MCC18\v3_39\src\traditional\proc\p18F6722.asm
                  INTCON3   0x000ff0       data     extern C:\MCC18\v3_39\src\traditional\proc\p18F6722.asm
              INTCON2bits   0x000ff1       data     extern C:\MCC18\v3_39\src\traditional\proc\p18F6722.asm
                  INTCON2   0x000ff1       data     extern C:\MCC18\v3_39\src\traditional\proc\p18F6722.asm
               INTCONbits   0x000ff2       data     extern C:\MCC18\v3_39\src\traditional\proc\p18F6722.asm
                   INTCON   0x000ff2       data     extern C:\MCC18\v3_39\src\traditional\proc\p18F6722.asm
                     PROD   0x000ff3       data     extern C:\MCC18\v3_39\src\traditional\proc\p18F6722.asm
                    PRODL   0x000ff3       data     extern C:\MCC18\v3_39\src\traditional\proc\p18F6722.asm
                    PRODH   0x000ff4       data     extern C:\MCC18\v3_39\src\traditional\proc\p18F6722.asm
                   TABLAT   0x000ff5       data     extern C:\MCC18\v3_39\src\traditional\proc\p18F6722.asm
                   TBLPTR   0x000ff6       data     extern C:\MCC18\v3_39\src\traditional\proc\p18F6722.asm
                  TBLPTRL   0x000ff6       data     extern C:\MCC18\v3_39\src\traditional\proc\p18F6722.asm
                  TBLPTRH   0x000ff7       data     extern C:\MCC18\v3_39\src\traditional\proc\p18F6722.asm
                  TBLPTRU   0x000ff8       data     extern C:\MCC18\v3_39\src\traditional\proc\p18F6722.asm
                      PCL   0x000ff9       data     extern C:\MCC18\v3_39\src\traditional\proc\p18F6722.asm
                       PC   0x000ff9       data     extern C:\MCC18\v3_39\src\traditional\proc\p18F6722.asm
                   PCLATH   0x000ffa       data     extern C:\MCC18\v3_39\src\traditional\proc\p18F6722.asm
                   PCLATU   0x000ffb       data     extern C:\MCC18\v3_39\src\traditional\proc\p18F6722.asm
               STKPTRbits   0x000ffc       data     extern C:\MCC18\v3_39\src\traditional\proc\p18F6722.asm
                   STKPTR   0x000ffc       data     extern C:\MCC18\v3_39\src\traditional\proc\p18F6722.asm
                      TOS   0x000ffd       data     extern C:\MCC18\v3_39\src\traditional\proc\p18F6722.asm
                     TOSL   0x000ffd       data     extern C:\MCC18\v3_39\src\traditional\proc\p18F6722.asm
                     TOSH   0x000ffe       data     extern C:\MCC18\v3_39\src\traditional\proc\p18F6722.asm
                     TOSU   0x000fff       data     extern C:\MCC18\v3_39\src\traditional\proc\p18F6722.asm


